gplink-1.5.2 #1285 (May 24 2017)
Map File - Created 24/05/17  20:07:41

                                 Section Info
                  Section       Type    Address   Location Size(Bytes)
                ---------  ---------  ---------  ---------  ---------
                 .idata_i    romdata   0x001ec4    program   0x000082
                   .cinit    romdata   0x00235e    program   0x00000e
.config_300001_BUILD/DEFAULT/PRODUCTION/STEPPERCON.O    romdata   0x300001    program   0x000001
.config_300003_BUILD/DEFAULT/PRODUCTION/STEPPERCON.O    romdata   0x300003    program   0x000001
.config_300005_BUILD/DEFAULT/PRODUCTION/STEPPERCON.O    romdata   0x300005    program   0x000001
.config_300006_BUILD/DEFAULT/PRODUCTION/STEPPERCON.O    romdata   0x300006    program   0x000001
         S_crt0iz___entry       code   0x000000    program   0x000004
 S___eeprom_gptrget1_stub       code   0x000004    program   0x000004
S_stepperCon_ivec_0x1_highInt       code   0x000008    program   0x000004
 S___eeprom_gptrput1_stub       code   0x00000c    program   0x000004
S_stepperCon_ivec_0x2_lowInt       code   0x000018    program   0x000004
       S_stepperCon__main       code   0x00001c    program   0x0006ca
         S_fsmul____fsmul       code   0x0006e6    program   0x000378
         S_fsadd____fsadd       code   0x000a5e    program   0x000364
         S_fsdiv____fsdiv       code   0x000dc2    program   0x000358
      S_mullong___mullong       code   0x00111a    program   0x000214
S_stepperCon__prep_pwm_lu       code   0x00132e    program   0x0001f4
   S_ulong2fs____ulong2fs       code   0x001522    program   0x000176
    S_stepperCon__highInt       code   0x001698    program   0x000138
     S_stepperCon__lowInt       code   0x0017d0    program   0x00011c
   S_slong2fs____slong2fs       code   0x0018ec    program   0x0000f6
   S_fs2ulong____fs2ulong       code   0x0019e2    program   0x0000f2
  S_registers__store_regs       code   0x001ad4    program   0x0000cc
       S_crt0iz___startup       code   0x001ba0    program   0x0000ac
S_stepperCon__set_op_vars       code   0x001c4c    program   0x0000a4
   S_sc_setup__resetCheck       code   0x001cf0    program   0x0000a2
   S_registers__read_regs       code   0x001d92    program   0x0000a2
     S_fs2uint____fs2uint       code   0x001e34    program   0x000090
     S_sint2fs____sint2fs       code   0x001f46    program   0x000074
    S_moduchar___moduchar       code   0x001fba    program   0x000074
   S_stepperCon__delay_ms       code   0x00202e    program   0x000070
     S_uint2fs____uint2fs       code   0x00209e    program   0x00006a
S_sc_setup__phTimersSetup       code   0x002108    program   0x00005c
      S_sc_setup__ioSetup       code   0x002164    program   0x00004c
     S_sc_setup__pwmSetup       code   0x0021b0    program   0x000046
 S_stepperCon__activeInts       code   0x0021f6    program   0x000036
   S_sc_setup__compsSetup       code   0x00222c    program   0x000032
   S_stepperCon__i2cSetup       code   0x00225e    program   0x000028
     S_sc_setup__intSetup       code   0x002286    program   0x000028
   S_stepperCon__idleInts       code   0x0022ae    program   0x000026
S_eeprom16_gptrput1____eeprom16_gptrput1       code   0x0022d4    program   0x000024
    S_gptrget1___gptrget1       code   0x0022f8    program   0x000022
S_eeprom16_gptrget1____eeprom16_gptrget1       code   0x00231a    program   0x00001c
    S_gptrput1___gptrput1       code   0x002336    program   0x000016
S_eeprom16_write____eeprom16_write       code   0x00234c    program   0x000012
   S_stepperCon____EEPROM       code   0xf00000    program   0x000009
                   .idata      idata   0x000060       data   0x000081
               .registers      udata   0x000000       data   0x000017
      udata_stepperCon_14      udata   0x0000e1       data   0x000009
            udata_fsadd_0      udata   0x0000ea       data   0x000004
            udata_fsadd_1      udata   0x0000ee       data   0x000004
            udata_fsmul_0      udata   0x0000f2       data   0x000004
            udata_fsmul_1      udata   0x0000f6       data   0x000004
          udata_mullong_0      udata   0x0000fa       data   0x000004
      udata_stepperCon_16      udata   0x0000fe       data   0x000002
            stack_section      udata   0x000100       data   0x000100
      udata_stepperCon_19      udata   0x000200       data   0x000080
          udata_mullong_1      udata   0x000f00       data   0x000004
          udata_mullong_2      udata   0x000f04       data   0x000004
          udata_mullong_3      udata   0x000f08       data   0x000004
          udata_mullong_4      udata   0x000f0c       data   0x000004
         udata_fs2ulong_0      udata   0x000f10       data   0x000004
            udata_fsdiv_0      udata   0x000f14       data   0x000004
            udata_fsdiv_1      udata   0x000f18       data   0x000004
         udata_ulong2fs_0      udata   0x000f1c       data   0x000004
      udata_stepperCon_17      udata   0x000f20       data   0x000002
      udata_stepperCon_18      udata   0x000f22       data   0x000002
       udata_stepperCon_0      udata   0x000f24       data   0x000001
       udata_stepperCon_1      udata   0x000f25       data   0x000001
       udata_stepperCon_2      udata   0x000f26       data   0x000001
       udata_stepperCon_3      udata   0x000f27       data   0x000001
       udata_stepperCon_4      udata   0x000f28       data   0x000001
       udata_stepperCon_5      udata   0x000f29       data   0x000001
       udata_stepperCon_6      udata   0x000f2a       data   0x000001
       udata_stepperCon_7      udata   0x000f2b       data   0x000001
       udata_stepperCon_8      udata   0x000f2c       data   0x000001
       udata_stepperCon_9      udata   0x000f2d       data   0x000001
      udata_stepperCon_10      udata   0x000f2e       data   0x000001
      udata_stepperCon_11      udata   0x000f2f       data   0x000001
      udata_stepperCon_12      udata   0x000f30       data   0x000001
      udata_stepperCon_13      udata   0x000f31       data   0x000001
      udata_stepperCon_15      udata   0x000f32       data   0x000001
      udata_stepperCon_20      udata   0x000f33       data   0x000001
      udata_stepperCon_21      udata   0x000f34       data   0x000001
      udata_stepperCon_22      udata   0x000f35       data   0x000001
     ustat_pic18f46k22_00      udata   0x000f38       data   0x00004d
     ustat_pic18f46k22_01      udata   0x000f89       data   0x000005
     ustat_pic18f46k22_02      udata   0x000f92       data   0x000005
     ustat_pic18f46k22_03      udata   0x000f9b       data   0x00001a
     ustat_pic18f46k22_04      udata   0x000fb6       data   0x00001e
     ustat_pic18f46k22_05      udata   0x000fd5       data   0x00002b



                              Program Memory Usage
                               Start         End
                           ---------   ---------
                            0x001ec4    0x001f45
                            0x000008    0x00000b
                            0x000018    0x00001b
                            0xf00000    0xf00008
                            0x00001c    0x0006e5
                            0x00202e    0x00209d
                            0x001c4c    0x001cef
                            0x00132e    0x001521
                            0x0022ae    0x0022d3
                            0x0021f6    0x00222b
                            0x00225e    0x002285
                            0x0017d0    0x0018eb
                            0x001698    0x0017cf
                            0x300001    0x300001
                            0x300003    0x300003
                            0x300006    0x300006
                            0x300005    0x300005
                            0x001cf0    0x001d91
                            0x002108    0x002163
                            0x002286    0x0022ad
                            0x0021b0    0x0021f5
                            0x002164    0x0021af
                            0x00222c    0x00225d
                            0x001ad4    0x001b9f
                            0x001d92    0x001e33
                            0x000000    0x000003
                            0x001ba0    0x001c4b
                            0x000a5e    0x000dc1
                            0x002336    0x00234b
                            0x0006e6    0x000a5d
                            0x00111a    0x00132d
                            0x0022f8    0x002319
                            0x00209e    0x002107
                            0x001e34    0x001ec3
                            0x0019e2    0x001ad3
                            0x000dc2    0x001119
                            0x001522    0x001697
                            0x001f46    0x001fb9
                            0x0018ec    0x0019e1
                            0x001fba    0x00202d
                            0x000004    0x000007
                            0x00000c    0x00000f
                            0x0022d4    0x0022f7
                            0x00231a    0x002335
                            0x00234c    0x00235d
                            0x00235e    0x00236b
                            9073 program addresses used



                              Symbols - Sorted by Name
                     Name    Address   Location    Storage File
                ---------  ---------  ---------  --------- ---------
               _00105_DS_   0x000796    program     static fsmul.asm
               _00105_DS_   0x001a42    program     static fs2ulong.asm
               _00106_DS_   0x0016ce    program     static build/default/production/stepperCon.asm
               _00106_DS_   0x000b24    program     static fsadd.asm
               _00106_DS_   0x0007a0    program     static fsmul.asm
               _00106_DS_   0x001ea8    program     static fs2uint.asm
               _00106_DS_   0x001a4c    program     static fs2ulong.asm
               _00106_DS_   0x000eea    program     static fsdiv.asm
               _00106_DS_   0x001988    program     static slong2fs.asm
               _00106_DS_   0x001ff6    program     static moduchar.asm
               _00107_DS_   0x001dd6    program     static build/default/production/_ext/899019879/registers.asm
               _00107_DS_   0x001eae    program     static fs2uint.asm
               _00107_DS_   0x00158c    program     static ulong2fs.asm
               _00107_DS_   0x001fe2    program     static moduchar.asm
               _00108_DS_   0x0016e0    program     static build/default/production/stepperCon.asm
               _00108_DS_   0x000b42    program     static fsadd.asm
               _00108_DS_   0x001ab6    program     static fs2ulong.asm
               _00108_DS_   0x000f00    program     static fsdiv.asm
               _00108_DS_   0x0019bc    program     static slong2fs.asm
               _00109_DS_   0x0016e8    program     static build/default/production/stepperCon.asm
               _00109_DS_   0x001e0e    program     static build/default/production/_ext/899019879/registers.asm
               _00109_DS_   0x00093e    program     static fsmul.asm
               _00110_DS_   0x000b88    program     static fsadd.asm
               _00110_DS_   0x000960    program     static fsmul.asm
               _00110_DS_   0x000f58    program     static fsdiv.asm
               _00110_DS_   0x0015c0    program     static ulong2fs.asm
               _00111_DS_   0x0016f0    program     static build/default/production/stepperCon.asm
               _00111_DS_   0x002008    program     static moduchar.asm
               _00112_DS_   0x000bb6    program     static fsadd.asm
               _00112_DS_   0x0009b6    program     static fsmul.asm
               _00112_DS_   0x001ea0    program     static fs2uint.asm
               _00112_DS_   0x000fcc    program     static fsdiv.asm
               _00112_DS_   0x001ffe    program     static moduchar.asm
               _00113_DS_   0x001716    program     static build/default/production/stepperCon.asm
               _00113_DS_   0x000f6a    program     static fsdiv.asm
               _00113_DS_   0x001950    program     static slong2fs.asm
               _00114_DS_   0x000c00    program     static fsadd.asm
               _00114_DS_   0x0015f0    program     static ulong2fs.asm
               _00115_DS_   0x0009a2    program     static fsmul.asm
               _00115_DS_   0x000fe2    program     static fsdiv.asm
               _00116_DS_   0x00171c    program     static build/default/production/stepperCon.asm
               _00116_DS_   0x000c22    program     static fsadd.asm
               _00116_DS_   0x000a0c    program     static fsmul.asm
               _00116_DS_   0x001624    program     static ulong2fs.asm
               _00117_DS_   0x00171e    program     static build/default/production/stepperCon.asm
               _00117_DS_   0x000a1c    program     static fsmul.asm
               _00117_DS_   0x001aa8    program     static fs2ulong.asm
               _00117_DS_   0x001052    program     static fsdiv.asm
               _00117_DS_   0x001662    program     static ulong2fs.asm
               _00118_DS_   0x000c58    program     static fsadd.asm
               _00118_DS_   0x001a8c    program     static fs2ulong.asm
               _00119_DS_   0x00172c    program     static build/default/production/stepperCon.asm
               _00119_DS_   0x000c80    program     static fsadd.asm
               _00119_DS_   0x000980    program     static fsmul.asm
               _00119_DS_   0x001a9c    program     static fs2ulong.asm
               _00120_DS_   0x001730    program     static build/default/production/stepperCon.asm
               _00120_DS_   0x000988    program     static fsmul.asm
               _00120_DS_   0x001a9a    program     static fs2ulong.asm
               _00120_DS_   0x00103e    program     static fsdiv.asm
               _00121_DS_   0x0009c6    program     static fsmul.asm
               _00121_DS_   0x0010a8    program     static fsdiv.asm
               _00121_DS_   0x001586    program     static ulong2fs.asm
               _00122_DS_   0x0009ce    program     static fsmul.asm
               _00122_DS_   0x0010b8    program     static fsdiv.asm
               _00123_DS_   0x000cb8    program     static fsadd.asm
               _00124_DS_   0x001738    program     static build/default/production/stepperCon.asm
               _00124_DS_   0x00101c    program     static fsdiv.asm
               _00124_DS_   0x0015a0    program     static ulong2fs.asm
               _00125_DS_   0x00174a    program     static build/default/production/stepperCon.asm
               _00125_DS_   0x000ccc    program     static fsadd.asm
               _00125_DS_   0x001024    program     static fsdiv.asm
               _00126_DS_   0x001062    program     static fsdiv.asm
               _00127_DS_   0x00174c    program     static build/default/production/stepperCon.asm
               _00127_DS_   0x001b1c    program     static build/default/production/_ext/899019879/registers.asm
               _00127_DS_   0x00106a    program     static fsdiv.asm
               _00128_DS_   0x001b72    program     static build/default/production/_ext/899019879/registers.asm
               _00129_DS_   0x001772    program     static build/default/production/stepperCon.asm
               _00129_DS_   0x001b76    program     static build/default/production/_ext/899019879/registers.asm
               _00129_DS_   0x000d1a    program     static fsadd.asm
               _00130_DS_   0x000d06    program     static fsadd.asm
               _00131_DS_   0x001d18    program     static build/default/production/_ext/899019879/sc_setup.asm
               _00132_DS_   0x001778    program     static build/default/production/stepperCon.asm
               _00132_DS_   0x000d2a    program     static fsadd.asm
               _00133_DS_   0x00177a    program     static build/default/production/stepperCon.asm
               _00133_DS_   0x001d0c    program     static build/default/production/_ext/899019879/sc_setup.asm
               _00133_DS_   0x000d78    program     static fsadd.asm
               _00134_DS_   0x001d1a    program     static build/default/production/_ext/899019879/sc_setup.asm
               _00135_DS_   0x001788    program     static build/default/production/stepperCon.asm
               _00136_DS_   0x00178c    program     static build/default/production/stepperCon.asm
               _00137_DS_   0x001d4a    program     static build/default/production/_ext/899019879/sc_setup.asm
               _00140_DS_   0x001794    program     static build/default/production/stepperCon.asm
               _00141_DS_   0x0017a6    program     static build/default/production/stepperCon.asm
               _00141_DS_   0x0015be    program     static ulong2fs.asm
               _00142_DS_   0x0015e6    program     static ulong2fs.asm
               _00143_DS_   0x001d34    program     static build/default/production/_ext/899019879/sc_setup.asm
               _00144_DS_   0x0017a8    program     static build/default/production/stepperCon.asm
               _00144_DS_   0x001616    program     static ulong2fs.asm
               _00145_DS_   0x001d22    program     static build/default/production/_ext/899019879/sc_setup.asm
               _00145_DS_   0x001618    program     static ulong2fs.asm
               _00148_DS_   0x001d84    program     static build/default/production/_ext/899019879/sc_setup.asm
               _00152_DS_   0x00096e    program     static fsmul.asm
               _00165_DS_   0x000f46    program     static fsdiv.asm
               _00166_DS_   0x000f92    program     static fsdiv.asm
               _00168_DS_   0x000fee    program     static fsdiv.asm
               _00170_DS_   0x00100a    program     static fsdiv.asm
               _00181_DS_   0x000b74    program     static fsadd.asm
               _00182_DS_   0x000ba2    program     static fsadd.asm
               _00189_DS_   0x000c34    program     static fsadd.asm
               _00190_DS_   0x000c56    program     static fsadd.asm
               _00191_DS_   0x000c46    program     static fsadd.asm
               _00192_DS_   0x001702    program     static build/default/production/stepperCon.asm
               _00192_DS_   0x000c78    program     static fsadd.asm
               _00193_DS_   0x000c68    program     static fsadd.asm
               _00194_DS_   0x00170a    program     static build/default/production/stepperCon.asm
               _00194_DS_   0x000cac    program     static fsadd.asm
               _00195_DS_   0x000cf2    program     static fsadd.asm
               _00196_DS_   0x00175e    program     static build/default/production/stepperCon.asm
               _00198_DS_   0x001766    program     static build/default/production/stepperCon.asm
               _00204_DS_   0x001812    program     static build/default/production/stepperCon.asm
               _00208_DS_   0x001874    program     static build/default/production/stepperCon.asm
               _00211_DS_   0x001866    program     static build/default/production/stepperCon.asm
               _00214_DS_   0x00183e    program     static build/default/production/stepperCon.asm
               _00215_DS_   0x001898    program     static build/default/production/stepperCon.asm
               _00219_DS_   0x0018b2    program     static build/default/production/stepperCon.asm
               _00221_DS_   0x0018b8    program     static build/default/production/stepperCon.asm
               _00256_DS_   0x002212    program     static build/default/production/stepperCon.asm
               _00257_DS_   0x00221a    program     static build/default/production/stepperCon.asm
               _00269_DS_   0x0013fe    program     static build/default/production/stepperCon.asm
               _00287_DS_   0x00207e    program     static build/default/production/stepperCon.asm
               _00290_DS_   0x002056    program     static build/default/production/stepperCon.asm
               _00292_DS_   0x002084    program     static build/default/production/stepperCon.asm
               _00299_DS_   0x000030    program     static build/default/production/stepperCon.asm
               _00300_DS_   0x0000c8    program     static build/default/production/stepperCon.asm
               _00302_DS_   0x0000fc    program     static build/default/production/stepperCon.asm
               _00303_DS_   0x000100    program     static build/default/production/stepperCon.asm
               _00305_DS_   0x000144    program     static build/default/production/stepperCon.asm
               _00308_DS_   0x000134    program     static build/default/production/stepperCon.asm
               _00311_DS_   0x000126    program     static build/default/production/stepperCon.asm
               _00312_DS_   0x000148    program     static build/default/production/stepperCon.asm
               _00314_DS_   0x000176    program     static build/default/production/stepperCon.asm
               _00317_DS_   0x000166    program     static build/default/production/stepperCon.asm
               _00320_DS_   0x000158    program     static build/default/production/stepperCon.asm
               _00321_DS_   0x00017a    program     static build/default/production/stepperCon.asm
               _00323_DS_   0x0001c2    program     static build/default/production/stepperCon.asm
               _00325_DS_   0x0001ac    program     static build/default/production/stepperCon.asm
               _00326_DS_   0x0001b4    program     static build/default/production/stepperCon.asm
               _00327_DS_   0x0001c8    program     static build/default/production/stepperCon.asm
               _00330_DS_   0x0001ec    program     static build/default/production/stepperCon.asm
               _00332_DS_   0x0001d6    program     static build/default/production/stepperCon.asm
               _00333_DS_   0x0001de    program     static build/default/production/stepperCon.asm
               _00334_DS_   0x0001f2    program     static build/default/production/stepperCon.asm
               _00337_DS_   0x000218    program     static build/default/production/stepperCon.asm
               _00340_DS_   0x000208    program     static build/default/production/stepperCon.asm
               _00341_DS_   0x000220    program     static build/default/production/stepperCon.asm
               _00343_DS_   0x00023e    program     static build/default/production/stepperCon.asm
               _00346_DS_   0x00022e    program     static build/default/production/stepperCon.asm
               _00347_DS_   0x000246    program     static build/default/production/stepperCon.asm
               _00348_DS_   0x000352    program     static build/default/production/stepperCon.asm
               _00350_DS_   0x0003c4    program     static build/default/production/stepperCon.asm
               _00353_DS_   0x0003b2    program     static build/default/production/stepperCon.asm
               _00356_DS_   0x0003a4    program     static build/default/production/stepperCon.asm
               _00357_DS_   0x0003c8    program     static build/default/production/stepperCon.asm
               _00360_DS_   0x000402    program     static build/default/production/stepperCon.asm
               _00363_DS_   0x0003f0    program     static build/default/production/stepperCon.asm
               _00366_DS_   0x0003e2    program     static build/default/production/stepperCon.asm
               _00367_DS_   0x000406    program     static build/default/production/stepperCon.asm
               _00370_DS_   0x000424    program     static build/default/production/stepperCon.asm
               _00373_DS_   0x000414    program     static build/default/production/stepperCon.asm
               _00374_DS_   0x00042c    program     static build/default/production/stepperCon.asm
               _00376_DS_   0x00044a    program     static build/default/production/stepperCon.asm
               _00379_DS_   0x00043a    program     static build/default/production/stepperCon.asm
               _00380_DS_   0x000452    program     static build/default/production/stepperCon.asm
               _00381_DS_   0x00045c    program     static build/default/production/stepperCon.asm
               _00383_DS_   0x00047c    program     static build/default/production/stepperCon.asm
               _00387_DS_   0x0004a2    program     static build/default/production/stepperCon.asm
               _00391_DS_   0x000490    program     static build/default/production/stepperCon.asm
               _00392_DS_   0x0004b4    program     static build/default/production/stepperCon.asm
               _00394_DS_   0x000518    program     static build/default/production/stepperCon.asm
               _00396_DS_   0x0004fa    program     static build/default/production/stepperCon.asm
               _00397_DS_   0x000502    program     static build/default/production/stepperCon.asm
               _00398_DS_   0x00051e    program     static build/default/production/stepperCon.asm
               _00402_DS_   0x000582    program     static build/default/production/stepperCon.asm
               _00404_DS_   0x000564    program     static build/default/production/stepperCon.asm
               _00405_DS_   0x00056c    program     static build/default/production/stepperCon.asm
               _00406_DS_   0x000588    program     static build/default/production/stepperCon.asm
               _00409_DS_   0x00061c    program     static build/default/production/stepperCon.asm
               _00411_DS_   0x00063c    program     static build/default/production/stepperCon.asm
               _00414_DS_   0x000642    program     static build/default/production/stepperCon.asm
               _00415_DS_   0x000644    program     static build/default/production/stepperCon.asm
               _00417_DS_   0x00064c    program     static build/default/production/stepperCon.asm
               _00420_DS_   0x00066c    program     static build/default/production/stepperCon.asm
               _00423_DS_   0x000672    program     static build/default/production/stepperCon.asm
               _00424_DS_   0x000674    program     static build/default/production/stepperCon.asm
               _00426_DS_   0x00067c    program     static build/default/production/stepperCon.asm
               _00430_DS_   0x0006a0    program     static build/default/production/stepperCon.asm
               _00432_DS_   0x0006aa    program     static build/default/production/stepperCon.asm
               _00437_DS_   0x000090    program     static build/default/production/stepperCon.asm
               _00610_DS_   0x00009c    program     static build/default/production/stepperCon.asm
               _00612_DS_   0x0000a4    program     static build/default/production/stepperCon.asm
               _00614_DS_   0x0000b0    program     static build/default/production/stepperCon.asm
               _00616_DS_   0x0000ba    program     static build/default/production/stepperCon.asm
               _00618_DS_   0x0000c6    program     static build/default/production/stepperCon.asm
               _00628_DS_   0x0001a6    program     static build/default/production/stepperCon.asm
               _00631_DS_   0x0001d0    program     static build/default/production/stepperCon.asm
               _00654_DS_   0x000478    program     static build/default/production/stepperCon.asm
               _00656_DS_   0x00048a    program     static build/default/production/stepperCon.asm
               _00658_DS_   0x0004bc    program     static build/default/production/stepperCon.asm
               _00659_DS_   0x0004f8    program     static build/default/production/stepperCon.asm
               _00661_DS_   0x000510    program     static build/default/production/stepperCon.asm
               _00663_DS_   0x000526    program     static build/default/production/stepperCon.asm
               _00664_DS_   0x000562    program     static build/default/production/stepperCon.asm
               _00666_DS_   0x00057a    program     static build/default/production/stepperCon.asm
               _00670_DS_   0x000628    program     static build/default/production/stepperCon.asm
               _00672_DS_   0x000630    program     static build/default/production/stepperCon.asm
               _00674_DS_   0x000658    program     static build/default/production/stepperCon.asm
               _00676_DS_   0x000660    program     static build/default/production/stepperCon.asm
                  _ADCON0   0x000fc2       data     extern libdev18f46k22_a-pic18f46k22.asm
              _ADCON0bits   0x000fc2       data     extern libdev18f46k22_a-pic18f46k22.asm
                  _ADCON1   0x000fc1       data     extern libdev18f46k22_a-pic18f46k22.asm
              _ADCON1bits   0x000fc1       data     extern libdev18f46k22_a-pic18f46k22.asm
                  _ADCON2   0x000fc0       data     extern libdev18f46k22_a-pic18f46k22.asm
              _ADCON2bits   0x000fc0       data     extern libdev18f46k22_a-pic18f46k22.asm
                   _ADRES   0x000fc3       data     extern libdev18f46k22_a-pic18f46k22.asm
                  _ADRESH   0x000fc4       data     extern libdev18f46k22_a-pic18f46k22.asm
                  _ADRESL   0x000fc3       data     extern libdev18f46k22_a-pic18f46k22.asm
                  _ANSELA   0x000f38       data     extern libdev18f46k22_a-pic18f46k22.asm
              _ANSELAbits   0x000f38       data     extern libdev18f46k22_a-pic18f46k22.asm
                  _ANSELB   0x000f39       data     extern libdev18f46k22_a-pic18f46k22.asm
              _ANSELBbits   0x000f39       data     extern libdev18f46k22_a-pic18f46k22.asm
                  _ANSELC   0x000f3a       data     extern libdev18f46k22_a-pic18f46k22.asm
              _ANSELCbits   0x000f3a       data     extern libdev18f46k22_a-pic18f46k22.asm
                  _ANSELD   0x000f3b       data     extern libdev18f46k22_a-pic18f46k22.asm
              _ANSELDbits   0x000f3b       data     extern libdev18f46k22_a-pic18f46k22.asm
                  _ANSELE   0x000f3c       data     extern libdev18f46k22_a-pic18f46k22.asm
              _ANSELEbits   0x000f3c       data     extern libdev18f46k22_a-pic18f46k22.asm
                _BAUD1CON   0x000fb8       data     extern libdev18f46k22_a-pic18f46k22.asm
            _BAUD1CONbits   0x000fb8       data     extern libdev18f46k22_a-pic18f46k22.asm
                _BAUD2CON   0x000f70       data     extern libdev18f46k22_a-pic18f46k22.asm
            _BAUD2CONbits   0x000f70       data     extern libdev18f46k22_a-pic18f46k22.asm
                 _BAUDCON   0x000fb8       data     extern libdev18f46k22_a-pic18f46k22.asm
                _BAUDCON1   0x000fb8       data     extern libdev18f46k22_a-pic18f46k22.asm
            _BAUDCON1bits   0x000fb8       data     extern libdev18f46k22_a-pic18f46k22.asm
                _BAUDCON2   0x000f70       data     extern libdev18f46k22_a-pic18f46k22.asm
            _BAUDCON2bits   0x000f70       data     extern libdev18f46k22_a-pic18f46k22.asm
             _BAUDCONbits   0x000fb8       data     extern libdev18f46k22_a-pic18f46k22.asm
                 _BAUDCTL   0x000fb8       data     extern libdev18f46k22_a-pic18f46k22.asm
             _BAUDCTLbits   0x000fb8       data     extern libdev18f46k22_a-pic18f46k22.asm
                     _BSR   0x000fe0       data     extern libdev18f46k22_a-pic18f46k22.asm
                 _CCP1CON   0x000fbd       data     extern libdev18f46k22_a-pic18f46k22.asm
             _CCP1CONbits   0x000fbd       data     extern libdev18f46k22_a-pic18f46k22.asm
                  _CCP2AS   0x000f64       data     extern libdev18f46k22_a-pic18f46k22.asm
              _CCP2ASbits   0x000f64       data     extern libdev18f46k22_a-pic18f46k22.asm
                 _CCP2CON   0x000f66       data     extern libdev18f46k22_a-pic18f46k22.asm
             _CCP2CONbits   0x000f66       data     extern libdev18f46k22_a-pic18f46k22.asm
                  _CCP3AS   0x000f5b       data     extern libdev18f46k22_a-pic18f46k22.asm
              _CCP3ASbits   0x000f5b       data     extern libdev18f46k22_a-pic18f46k22.asm
                 _CCP3CON   0x000f5d       data     extern libdev18f46k22_a-pic18f46k22.asm
             _CCP3CONbits   0x000f5d       data     extern libdev18f46k22_a-pic18f46k22.asm
                 _CCP4CON   0x000f57       data     extern libdev18f46k22_a-pic18f46k22.asm
             _CCP4CONbits   0x000f57       data     extern libdev18f46k22_a-pic18f46k22.asm
                 _CCP5CON   0x000f54       data     extern libdev18f46k22_a-pic18f46k22.asm
             _CCP5CONbits   0x000f54       data     extern libdev18f46k22_a-pic18f46k22.asm
                   _CCPR1   0x000fbe       data     extern libdev18f46k22_a-pic18f46k22.asm
                  _CCPR1H   0x000fbf       data     extern libdev18f46k22_a-pic18f46k22.asm
                  _CCPR1L   0x000fbe       data     extern libdev18f46k22_a-pic18f46k22.asm
                   _CCPR2   0x000f67       data     extern libdev18f46k22_a-pic18f46k22.asm
                  _CCPR2H   0x000f68       data     extern libdev18f46k22_a-pic18f46k22.asm
                  _CCPR2L   0x000f67       data     extern libdev18f46k22_a-pic18f46k22.asm
                   _CCPR3   0x000f5e       data     extern libdev18f46k22_a-pic18f46k22.asm
                  _CCPR3H   0x000f5f       data     extern libdev18f46k22_a-pic18f46k22.asm
                  _CCPR3L   0x000f5e       data     extern libdev18f46k22_a-pic18f46k22.asm
                   _CCPR4   0x000f58       data     extern libdev18f46k22_a-pic18f46k22.asm
                  _CCPR4H   0x000f59       data     extern libdev18f46k22_a-pic18f46k22.asm
                  _CCPR4L   0x000f58       data     extern libdev18f46k22_a-pic18f46k22.asm
                   _CCPR5   0x000f55       data     extern libdev18f46k22_a-pic18f46k22.asm
                  _CCPR5H   0x000f56       data     extern libdev18f46k22_a-pic18f46k22.asm
                  _CCPR5L   0x000f55       data     extern libdev18f46k22_a-pic18f46k22.asm
                _CCPTMRS0   0x000f49       data     extern libdev18f46k22_a-pic18f46k22.asm
            _CCPTMRS0bits   0x000f49       data     extern libdev18f46k22_a-pic18f46k22.asm
                _CCPTMRS1   0x000f48       data     extern libdev18f46k22_a-pic18f46k22.asm
            _CCPTMRS1bits   0x000f48       data     extern libdev18f46k22_a-pic18f46k22.asm
                 _CM12CON   0x000f77       data     extern libdev18f46k22_a-pic18f46k22.asm
             _CM12CONbits   0x000f77       data     extern libdev18f46k22_a-pic18f46k22.asm
                  _CM1CON   0x000f79       data     extern libdev18f46k22_a-pic18f46k22.asm
                 _CM1CON0   0x000f79       data     extern libdev18f46k22_a-pic18f46k22.asm
             _CM1CON0bits   0x000f79       data     extern libdev18f46k22_a-pic18f46k22.asm
              _CM1CONbits   0x000f79       data     extern libdev18f46k22_a-pic18f46k22.asm
                  _CM2CON   0x000f78       data     extern libdev18f46k22_a-pic18f46k22.asm
                 _CM2CON0   0x000f78       data     extern libdev18f46k22_a-pic18f46k22.asm
             _CM2CON0bits   0x000f78       data     extern libdev18f46k22_a-pic18f46k22.asm
                 _CM2CON1   0x000f77       data     extern libdev18f46k22_a-pic18f46k22.asm
             _CM2CON1bits   0x000f77       data     extern libdev18f46k22_a-pic18f46k22.asm
              _CM2CONbits   0x000f78       data     extern libdev18f46k22_a-pic18f46k22.asm
                _CTMUCON0   0x000f45       data     extern libdev18f46k22_a-pic18f46k22.asm
            _CTMUCON0bits   0x000f45       data     extern libdev18f46k22_a-pic18f46k22.asm
                _CTMUCON1   0x000f44       data     extern libdev18f46k22_a-pic18f46k22.asm
            _CTMUCON1bits   0x000f44       data     extern libdev18f46k22_a-pic18f46k22.asm
                _CTMUCONH   0x000f45       data     extern libdev18f46k22_a-pic18f46k22.asm
            _CTMUCONHbits   0x000f45       data     extern libdev18f46k22_a-pic18f46k22.asm
                _CTMUCONL   0x000f44       data     extern libdev18f46k22_a-pic18f46k22.asm
            _CTMUCONLbits   0x000f44       data     extern libdev18f46k22_a-pic18f46k22.asm
                _CTMUICON   0x000f43       data     extern libdev18f46k22_a-pic18f46k22.asm
               _CTMUICONH   0x000f43       data     extern libdev18f46k22_a-pic18f46k22.asm
           _CTMUICONHbits   0x000f43       data     extern libdev18f46k22_a-pic18f46k22.asm
            _CTMUICONbits   0x000f43       data     extern libdev18f46k22_a-pic18f46k22.asm
                 _DACCON0   0x000f41       data     extern libdev18f46k22_a-pic18f46k22.asm
             _DACCON0bits   0x000f41       data     extern libdev18f46k22_a-pic18f46k22.asm
                 _DACCON1   0x000f40       data     extern libdev18f46k22_a-pic18f46k22.asm
             _DACCON1bits   0x000f40       data     extern libdev18f46k22_a-pic18f46k22.asm
                    _DDRA   0x000f92       data     extern libdev18f46k22_a-pic18f46k22.asm
                _DDRAbits   0x000f92       data     extern libdev18f46k22_a-pic18f46k22.asm
                    _DDRB   0x000f93       data     extern libdev18f46k22_a-pic18f46k22.asm
                _DDRBbits   0x000f93       data     extern libdev18f46k22_a-pic18f46k22.asm
                    _DDRC   0x000f94       data     extern libdev18f46k22_a-pic18f46k22.asm
                _DDRCbits   0x000f94       data     extern libdev18f46k22_a-pic18f46k22.asm
                    _DDRD   0x000f95       data     extern libdev18f46k22_a-pic18f46k22.asm
                _DDRDbits   0x000f95       data     extern libdev18f46k22_a-pic18f46k22.asm
                    _DDRE   0x000f96       data     extern libdev18f46k22_a-pic18f46k22.asm
                _DDREbits   0x000f96       data     extern libdev18f46k22_a-pic18f46k22.asm
                 _ECCP1AS   0x000fb6       data     extern libdev18f46k22_a-pic18f46k22.asm
             _ECCP1ASbits   0x000fb6       data     extern libdev18f46k22_a-pic18f46k22.asm
                 _ECCP2AS   0x000f64       data     extern libdev18f46k22_a-pic18f46k22.asm
             _ECCP2ASbits   0x000f64       data     extern libdev18f46k22_a-pic18f46k22.asm
                 _ECCP3AS   0x000f5b       data     extern libdev18f46k22_a-pic18f46k22.asm
             _ECCP3ASbits   0x000f5b       data     extern libdev18f46k22_a-pic18f46k22.asm
                  _ECCPAS   0x000fb6       data     extern libdev18f46k22_a-pic18f46k22.asm
              _ECCPASbits   0x000fb6       data     extern libdev18f46k22_a-pic18f46k22.asm
                   _EEADR   0x000fa9       data     extern libdev18f46k22_a-pic18f46k22.asm
                  _EEADRH   0x000faa       data     extern libdev18f46k22_a-pic18f46k22.asm
              _EEADRHbits   0x000faa       data     extern libdev18f46k22_a-pic18f46k22.asm
               _EEADRbits   0x000fa9       data     extern libdev18f46k22_a-pic18f46k22.asm
                  _EECON1   0x000fa6       data     extern libdev18f46k22_a-pic18f46k22.asm
              _EECON1bits   0x000fa6       data     extern libdev18f46k22_a-pic18f46k22.asm
                  _EECON2   0x000fa7       data     extern libdev18f46k22_a-pic18f46k22.asm
                  _EEDATA   0x000fa8       data     extern libdev18f46k22_a-pic18f46k22.asm
                   _FSR0H   0x000fea       data     extern libdev18f46k22_a-pic18f46k22.asm
                   _FSR0L   0x000fe9       data     extern libdev18f46k22_a-pic18f46k22.asm
                   _FSR1H   0x000fe2       data     extern libdev18f46k22_a-pic18f46k22.asm
                   _FSR1L   0x000fe1       data     extern libdev18f46k22_a-pic18f46k22.asm
                   _FSR2H   0x000fda       data     extern libdev18f46k22_a-pic18f46k22.asm
                   _FSR2L   0x000fd9       data     extern libdev18f46k22_a-pic18f46k22.asm
                  _FVRCON   0x000f42       data     extern libdev18f46k22_a-pic18f46k22.asm
              _FVRCONbits   0x000f42       data     extern libdev18f46k22_a-pic18f46k22.asm
                 _HLVDCON   0x000f9c       data     extern libdev18f46k22_a-pic18f46k22.asm
             _HLVDCONbits   0x000f9c       data     extern libdev18f46k22_a-pic18f46k22.asm
                   _INDF0   0x000fef       data     extern libdev18f46k22_a-pic18f46k22.asm
                   _INDF1   0x000fe7       data     extern libdev18f46k22_a-pic18f46k22.asm
                   _INDF2   0x000fdf       data     extern libdev18f46k22_a-pic18f46k22.asm
                  _INTCON   0x000ff2       data     extern libdev18f46k22_a-pic18f46k22.asm
                 _INTCON2   0x000ff1       data     extern libdev18f46k22_a-pic18f46k22.asm
             _INTCON2bits   0x000ff1       data     extern libdev18f46k22_a-pic18f46k22.asm
                 _INTCON3   0x000ff0       data     extern libdev18f46k22_a-pic18f46k22.asm
             _INTCON3bits   0x000ff0       data     extern libdev18f46k22_a-pic18f46k22.asm
              _INTCONbits   0x000ff2       data     extern libdev18f46k22_a-pic18f46k22.asm
                    _IOCB   0x000f62       data     extern libdev18f46k22_a-pic18f46k22.asm
                _IOCBbits   0x000f62       data     extern libdev18f46k22_a-pic18f46k22.asm
                    _IPR1   0x000f9f       data     extern libdev18f46k22_a-pic18f46k22.asm
                _IPR1bits   0x000f9f       data     extern libdev18f46k22_a-pic18f46k22.asm
                    _IPR2   0x000fa2       data     extern libdev18f46k22_a-pic18f46k22.asm
                _IPR2bits   0x000fa2       data     extern libdev18f46k22_a-pic18f46k22.asm
                    _IPR3   0x000fa5       data     extern libdev18f46k22_a-pic18f46k22.asm
                _IPR3bits   0x000fa5       data     extern libdev18f46k22_a-pic18f46k22.asm
                    _IPR4   0x000f7c       data     extern libdev18f46k22_a-pic18f46k22.asm
                _IPR4bits   0x000f7c       data     extern libdev18f46k22_a-pic18f46k22.asm
                    _IPR5   0x000f7f       data     extern libdev18f46k22_a-pic18f46k22.asm
                _IPR5bits   0x000f7f       data     extern libdev18f46k22_a-pic18f46k22.asm
                    _LATA   0x000f89       data     extern libdev18f46k22_a-pic18f46k22.asm
                _LATAbits   0x000f89       data     extern libdev18f46k22_a-pic18f46k22.asm
                    _LATB   0x000f8a       data     extern libdev18f46k22_a-pic18f46k22.asm
                _LATBbits   0x000f8a       data     extern libdev18f46k22_a-pic18f46k22.asm
                    _LATC   0x000f8b       data     extern libdev18f46k22_a-pic18f46k22.asm
                _LATCbits   0x000f8b       data     extern libdev18f46k22_a-pic18f46k22.asm
                    _LATD   0x000f8c       data     extern libdev18f46k22_a-pic18f46k22.asm
                _LATDbits   0x000f8c       data     extern libdev18f46k22_a-pic18f46k22.asm
                    _LATE   0x000f8d       data     extern libdev18f46k22_a-pic18f46k22.asm
                _LATEbits   0x000f8d       data     extern libdev18f46k22_a-pic18f46k22.asm
                  _LVDCON   0x000f9c       data     extern libdev18f46k22_a-pic18f46k22.asm
              _LVDCONbits   0x000f9c       data     extern libdev18f46k22_a-pic18f46k22.asm
                  _OSCCON   0x000fd3       data     extern libdev18f46k22_a-pic18f46k22.asm
                 _OSCCON2   0x000fd2       data     extern libdev18f46k22_a-pic18f46k22.asm
             _OSCCON2bits   0x000fd2       data     extern libdev18f46k22_a-pic18f46k22.asm
              _OSCCONbits   0x000fd3       data     extern libdev18f46k22_a-pic18f46k22.asm
                 _OSCTUNE   0x000f9b       data     extern libdev18f46k22_a-pic18f46k22.asm
             _OSCTUNEbits   0x000f9b       data     extern libdev18f46k22_a-pic18f46k22.asm
                      _PC   0x000ff9       data     extern libdev18f46k22_a-pic18f46k22.asm
                     _PCL   0x000ff9       data     extern libdev18f46k22_a-pic18f46k22.asm
                  _PCLATH   0x000ffa       data     extern libdev18f46k22_a-pic18f46k22.asm
                  _PCLATU   0x000ffb       data     extern libdev18f46k22_a-pic18f46k22.asm
                    _PIE1   0x000f9d       data     extern libdev18f46k22_a-pic18f46k22.asm
                _PIE1bits   0x000f9d       data     extern libdev18f46k22_a-pic18f46k22.asm
                    _PIE2   0x000fa0       data     extern libdev18f46k22_a-pic18f46k22.asm
                _PIE2bits   0x000fa0       data     extern libdev18f46k22_a-pic18f46k22.asm
                    _PIE3   0x000fa3       data     extern libdev18f46k22_a-pic18f46k22.asm
                _PIE3bits   0x000fa3       data     extern libdev18f46k22_a-pic18f46k22.asm
                    _PIE4   0x000f7a       data     extern libdev18f46k22_a-pic18f46k22.asm
                _PIE4bits   0x000f7a       data     extern libdev18f46k22_a-pic18f46k22.asm
                    _PIE5   0x000f7d       data     extern libdev18f46k22_a-pic18f46k22.asm
                _PIE5bits   0x000f7d       data     extern libdev18f46k22_a-pic18f46k22.asm
                    _PIR1   0x000f9e       data     extern libdev18f46k22_a-pic18f46k22.asm
                _PIR1bits   0x000f9e       data     extern libdev18f46k22_a-pic18f46k22.asm
                    _PIR2   0x000fa1       data     extern libdev18f46k22_a-pic18f46k22.asm
                _PIR2bits   0x000fa1       data     extern libdev18f46k22_a-pic18f46k22.asm
                    _PIR3   0x000fa4       data     extern libdev18f46k22_a-pic18f46k22.asm
                _PIR3bits   0x000fa4       data     extern libdev18f46k22_a-pic18f46k22.asm
                    _PIR4   0x000f7b       data     extern libdev18f46k22_a-pic18f46k22.asm
                _PIR4bits   0x000f7b       data     extern libdev18f46k22_a-pic18f46k22.asm
                    _PIR5   0x000f7e       data     extern libdev18f46k22_a-pic18f46k22.asm
                _PIR5bits   0x000f7e       data     extern libdev18f46k22_a-pic18f46k22.asm
                  _PLUSW0   0x000feb       data     extern libdev18f46k22_a-pic18f46k22.asm
                  _PLUSW1   0x000fe3       data     extern libdev18f46k22_a-pic18f46k22.asm
                  _PLUSW2   0x000fdb       data     extern libdev18f46k22_a-pic18f46k22.asm
                    _PMD0   0x000f3f       data     extern libdev18f46k22_a-pic18f46k22.asm
                _PMD0bits   0x000f3f       data     extern libdev18f46k22_a-pic18f46k22.asm
                    _PMD1   0x000f3e       data     extern libdev18f46k22_a-pic18f46k22.asm
                _PMD1bits   0x000f3e       data     extern libdev18f46k22_a-pic18f46k22.asm
                    _PMD2   0x000f3d       data     extern libdev18f46k22_a-pic18f46k22.asm
                _PMD2bits   0x000f3d       data     extern libdev18f46k22_a-pic18f46k22.asm
                   _PORTA   0x000f80       data     extern libdev18f46k22_a-pic18f46k22.asm
               _PORTAbits   0x000f80       data     extern libdev18f46k22_a-pic18f46k22.asm
                   _PORTB   0x000f81       data     extern libdev18f46k22_a-pic18f46k22.asm
               _PORTBbits   0x000f81       data     extern libdev18f46k22_a-pic18f46k22.asm
                   _PORTC   0x000f82       data     extern libdev18f46k22_a-pic18f46k22.asm
               _PORTCbits   0x000f82       data     extern libdev18f46k22_a-pic18f46k22.asm
                   _PORTD   0x000f83       data     extern libdev18f46k22_a-pic18f46k22.asm
               _PORTDbits   0x000f83       data     extern libdev18f46k22_a-pic18f46k22.asm
                   _PORTE   0x000f84       data     extern libdev18f46k22_a-pic18f46k22.asm
               _PORTEbits   0x000f84       data     extern libdev18f46k22_a-pic18f46k22.asm
                _POSTDEC0   0x000fed       data     extern libdev18f46k22_a-pic18f46k22.asm
                _POSTDEC1   0x000fe5       data     extern libdev18f46k22_a-pic18f46k22.asm
                _POSTDEC2   0x000fdd       data     extern libdev18f46k22_a-pic18f46k22.asm
                _POSTINC0   0x000fee       data     extern libdev18f46k22_a-pic18f46k22.asm
                _POSTINC1   0x000fe6       data     extern libdev18f46k22_a-pic18f46k22.asm
                _POSTINC2   0x000fde       data     extern libdev18f46k22_a-pic18f46k22.asm
                     _PR2   0x000fbb       data     extern libdev18f46k22_a-pic18f46k22.asm
                     _PR4   0x000f52       data     extern libdev18f46k22_a-pic18f46k22.asm
                     _PR6   0x000f4b       data     extern libdev18f46k22_a-pic18f46k22.asm
                 _PREINC0   0x000fec       data     extern libdev18f46k22_a-pic18f46k22.asm
                 _PREINC1   0x000fe4       data     extern libdev18f46k22_a-pic18f46k22.asm
                 _PREINC2   0x000fdc       data     extern libdev18f46k22_a-pic18f46k22.asm
                    _PROD   0x000ff3       data     extern libdev18f46k22_a-pic18f46k22.asm
                   _PRODH   0x000ff4       data     extern libdev18f46k22_a-pic18f46k22.asm
                   _PRODL   0x000ff3       data     extern libdev18f46k22_a-pic18f46k22.asm
                _PSTR1CON   0x000fb9       data     extern libdev18f46k22_a-pic18f46k22.asm
            _PSTR1CONbits   0x000fb9       data     extern libdev18f46k22_a-pic18f46k22.asm
                _PSTR2CON   0x000f63       data     extern libdev18f46k22_a-pic18f46k22.asm
            _PSTR2CONbits   0x000f63       data     extern libdev18f46k22_a-pic18f46k22.asm
                _PSTR3CON   0x000f5a       data     extern libdev18f46k22_a-pic18f46k22.asm
            _PSTR3CONbits   0x000f5a       data     extern libdev18f46k22_a-pic18f46k22.asm
                 _PSTRCON   0x000fb9       data     extern libdev18f46k22_a-pic18f46k22.asm
             _PSTRCONbits   0x000fb9       data     extern libdev18f46k22_a-pic18f46k22.asm
                 _PWM1CON   0x000fb7       data     extern libdev18f46k22_a-pic18f46k22.asm
             _PWM1CONbits   0x000fb7       data     extern libdev18f46k22_a-pic18f46k22.asm
                 _PWM2CON   0x000f65       data     extern libdev18f46k22_a-pic18f46k22.asm
             _PWM2CONbits   0x000f65       data     extern libdev18f46k22_a-pic18f46k22.asm
                 _PWM3CON   0x000f5c       data     extern libdev18f46k22_a-pic18f46k22.asm
             _PWM3CONbits   0x000f5c       data     extern libdev18f46k22_a-pic18f46k22.asm
                  _PWMCON   0x000fb7       data     extern libdev18f46k22_a-pic18f46k22.asm
              _PWMCONbits   0x000fb7       data     extern libdev18f46k22_a-pic18f46k22.asm
                  _RC1REG   0x000fae       data     extern libdev18f46k22_a-pic18f46k22.asm
                  _RC1STA   0x000fab       data     extern libdev18f46k22_a-pic18f46k22.asm
              _RC1STAbits   0x000fab       data     extern libdev18f46k22_a-pic18f46k22.asm
                  _RC2REG   0x000f74       data     extern libdev18f46k22_a-pic18f46k22.asm
                  _RC2STA   0x000f71       data     extern libdev18f46k22_a-pic18f46k22.asm
              _RC2STAbits   0x000f71       data     extern libdev18f46k22_a-pic18f46k22.asm
                    _RCON   0x000fd0       data     extern libdev18f46k22_a-pic18f46k22.asm
                _RCONbits   0x000fd0       data     extern libdev18f46k22_a-pic18f46k22.asm
                   _RCREG   0x000fae       data     extern libdev18f46k22_a-pic18f46k22.asm
                  _RCREG1   0x000fae       data     extern libdev18f46k22_a-pic18f46k22.asm
                  _RCREG2   0x000f74       data     extern libdev18f46k22_a-pic18f46k22.asm
                   _RCSTA   0x000fab       data     extern libdev18f46k22_a-pic18f46k22.asm
                  _RCSTA1   0x000fab       data     extern libdev18f46k22_a-pic18f46k22.asm
              _RCSTA1bits   0x000fab       data     extern libdev18f46k22_a-pic18f46k22.asm
                  _RCSTA2   0x000f71       data     extern libdev18f46k22_a-pic18f46k22.asm
              _RCSTA2bits   0x000f71       data     extern libdev18f46k22_a-pic18f46k22.asm
               _RCSTAbits   0x000fab       data     extern libdev18f46k22_a-pic18f46k22.asm
                  _SLRCON   0x000f60       data     extern libdev18f46k22_a-pic18f46k22.asm
              _SLRCONbits   0x000f60       data     extern libdev18f46k22_a-pic18f46k22.asm
                  _SP1BRG   0x000faf       data     extern libdev18f46k22_a-pic18f46k22.asm
                 _SP1BRGH   0x000fb0       data     extern libdev18f46k22_a-pic18f46k22.asm
                  _SP2BRG   0x000f75       data     extern libdev18f46k22_a-pic18f46k22.asm
                 _SP2BRGH   0x000f76       data     extern libdev18f46k22_a-pic18f46k22.asm
                   _SPBRG   0x000faf       data     extern libdev18f46k22_a-pic18f46k22.asm
                  _SPBRG1   0x000faf       data     extern libdev18f46k22_a-pic18f46k22.asm
                  _SPBRG2   0x000f75       data     extern libdev18f46k22_a-pic18f46k22.asm
                  _SPBRGH   0x000fb0       data     extern libdev18f46k22_a-pic18f46k22.asm
                 _SPBRGH1   0x000fb0       data     extern libdev18f46k22_a-pic18f46k22.asm
                 _SPBRGH2   0x000f76       data     extern libdev18f46k22_a-pic18f46k22.asm
                  _SRCON0   0x000f47       data     extern libdev18f46k22_a-pic18f46k22.asm
              _SRCON0bits   0x000f47       data     extern libdev18f46k22_a-pic18f46k22.asm
                  _SRCON1   0x000f46       data     extern libdev18f46k22_a-pic18f46k22.asm
              _SRCON1bits   0x000f46       data     extern libdev18f46k22_a-pic18f46k22.asm
                 _SSP1ADD   0x000fc8       data     extern libdev18f46k22_a-pic18f46k22.asm
                 _SSP1BUF   0x000fc9       data     extern libdev18f46k22_a-pic18f46k22.asm
                _SSP1CON1   0x000fc6       data     extern libdev18f46k22_a-pic18f46k22.asm
            _SSP1CON1bits   0x000fc6       data     extern libdev18f46k22_a-pic18f46k22.asm
                _SSP1CON2   0x000fc5       data     extern libdev18f46k22_a-pic18f46k22.asm
            _SSP1CON2bits   0x000fc5       data     extern libdev18f46k22_a-pic18f46k22.asm
                _SSP1CON3   0x000fcb       data     extern libdev18f46k22_a-pic18f46k22.asm
            _SSP1CON3bits   0x000fcb       data     extern libdev18f46k22_a-pic18f46k22.asm
                 _SSP1MSK   0x000fca       data     extern libdev18f46k22_a-pic18f46k22.asm
             _SSP1MSKbits   0x000fca       data     extern libdev18f46k22_a-pic18f46k22.asm
                _SSP1STAT   0x000fc7       data     extern libdev18f46k22_a-pic18f46k22.asm
            _SSP1STATbits   0x000fc7       data     extern libdev18f46k22_a-pic18f46k22.asm
                 _SSP2ADD   0x000f6e       data     extern libdev18f46k22_a-pic18f46k22.asm
                 _SSP2BUF   0x000f6f       data     extern libdev18f46k22_a-pic18f46k22.asm
                _SSP2CON1   0x000f6c       data     extern libdev18f46k22_a-pic18f46k22.asm
            _SSP2CON1bits   0x000f6c       data     extern libdev18f46k22_a-pic18f46k22.asm
                _SSP2CON2   0x000f6b       data     extern libdev18f46k22_a-pic18f46k22.asm
            _SSP2CON2bits   0x000f6b       data     extern libdev18f46k22_a-pic18f46k22.asm
                _SSP2CON3   0x000f69       data     extern libdev18f46k22_a-pic18f46k22.asm
            _SSP2CON3bits   0x000f69       data     extern libdev18f46k22_a-pic18f46k22.asm
                 _SSP2MSK   0x000f6a       data     extern libdev18f46k22_a-pic18f46k22.asm
             _SSP2MSKbits   0x000f6a       data     extern libdev18f46k22_a-pic18f46k22.asm
                _SSP2STAT   0x000f6d       data     extern libdev18f46k22_a-pic18f46k22.asm
            _SSP2STATbits   0x000f6d       data     extern libdev18f46k22_a-pic18f46k22.asm
                  _SSPADD   0x000fc8       data     extern libdev18f46k22_a-pic18f46k22.asm
                  _SSPBUF   0x000fc9       data     extern libdev18f46k22_a-pic18f46k22.asm
                 _SSPCON1   0x000fc6       data     extern libdev18f46k22_a-pic18f46k22.asm
             _SSPCON1bits   0x000fc6       data     extern libdev18f46k22_a-pic18f46k22.asm
                 _SSPCON2   0x000fc5       data     extern libdev18f46k22_a-pic18f46k22.asm
             _SSPCON2bits   0x000fc5       data     extern libdev18f46k22_a-pic18f46k22.asm
                 _SSPCON3   0x000fcb       data     extern libdev18f46k22_a-pic18f46k22.asm
             _SSPCON3bits   0x000fcb       data     extern libdev18f46k22_a-pic18f46k22.asm
                  _SSPMSK   0x000fca       data     extern libdev18f46k22_a-pic18f46k22.asm
              _SSPMSKbits   0x000fca       data     extern libdev18f46k22_a-pic18f46k22.asm
                 _SSPSTAT   0x000fc7       data     extern libdev18f46k22_a-pic18f46k22.asm
             _SSPSTATbits   0x000fc7       data     extern libdev18f46k22_a-pic18f46k22.asm
                  _STATUS   0x000fd8       data     extern libdev18f46k22_a-pic18f46k22.asm
              _STATUSbits   0x000fd8       data     extern libdev18f46k22_a-pic18f46k22.asm
                  _STKPTR   0x000ffc       data     extern libdev18f46k22_a-pic18f46k22.asm
              _STKPTRbits   0x000ffc       data     extern libdev18f46k22_a-pic18f46k22.asm
                   _T0CON   0x000fd5       data     extern libdev18f46k22_a-pic18f46k22.asm
               _T0CONbits   0x000fd5       data     extern libdev18f46k22_a-pic18f46k22.asm
                   _T1CON   0x000fcd       data     extern libdev18f46k22_a-pic18f46k22.asm
               _T1CONbits   0x000fcd       data     extern libdev18f46k22_a-pic18f46k22.asm
                  _T1GCON   0x000fcc       data     extern libdev18f46k22_a-pic18f46k22.asm
              _T1GCONbits   0x000fcc       data     extern libdev18f46k22_a-pic18f46k22.asm
                   _T2CON   0x000fba       data     extern libdev18f46k22_a-pic18f46k22.asm
               _T2CONbits   0x000fba       data     extern libdev18f46k22_a-pic18f46k22.asm
                   _T3CON   0x000fb1       data     extern libdev18f46k22_a-pic18f46k22.asm
               _T3CONbits   0x000fb1       data     extern libdev18f46k22_a-pic18f46k22.asm
                  _T3GCON   0x000fb4       data     extern libdev18f46k22_a-pic18f46k22.asm
              _T3GCONbits   0x000fb4       data     extern libdev18f46k22_a-pic18f46k22.asm
                   _T4CON   0x000f51       data     extern libdev18f46k22_a-pic18f46k22.asm
               _T4CONbits   0x000f51       data     extern libdev18f46k22_a-pic18f46k22.asm
                   _T5CON   0x000f4e       data     extern libdev18f46k22_a-pic18f46k22.asm
               _T5CONbits   0x000f4e       data     extern libdev18f46k22_a-pic18f46k22.asm
                  _T5GCON   0x000f4d       data     extern libdev18f46k22_a-pic18f46k22.asm
              _T5GCONbits   0x000f4d       data     extern libdev18f46k22_a-pic18f46k22.asm
                   _T6CON   0x000f4a       data     extern libdev18f46k22_a-pic18f46k22.asm
               _T6CONbits   0x000f4a       data     extern libdev18f46k22_a-pic18f46k22.asm
                  _TABLAT   0x000ff5       data     extern libdev18f46k22_a-pic18f46k22.asm
                  _TBLPTR   0x000ff6       data     extern libdev18f46k22_a-pic18f46k22.asm
                 _TBLPTRH   0x000ff7       data     extern libdev18f46k22_a-pic18f46k22.asm
                 _TBLPTRL   0x000ff6       data     extern libdev18f46k22_a-pic18f46k22.asm
                 _TBLPTRU   0x000ff8       data     extern libdev18f46k22_a-pic18f46k22.asm
                    _TMR0   0x000fd6       data     extern libdev18f46k22_a-pic18f46k22.asm
                   _TMR0H   0x000fd7       data     extern libdev18f46k22_a-pic18f46k22.asm
                   _TMR0L   0x000fd6       data     extern libdev18f46k22_a-pic18f46k22.asm
                    _TMR1   0x000fce       data     extern libdev18f46k22_a-pic18f46k22.asm
                   _TMR1H   0x000fcf       data     extern libdev18f46k22_a-pic18f46k22.asm
                   _TMR1L   0x000fce       data     extern libdev18f46k22_a-pic18f46k22.asm
                    _TMR2   0x000fbc       data     extern libdev18f46k22_a-pic18f46k22.asm
                    _TMR3   0x000fb2       data     extern libdev18f46k22_a-pic18f46k22.asm
                   _TMR3H   0x000fb3       data     extern libdev18f46k22_a-pic18f46k22.asm
                   _TMR3L   0x000fb2       data     extern libdev18f46k22_a-pic18f46k22.asm
                    _TMR4   0x000f53       data     extern libdev18f46k22_a-pic18f46k22.asm
                    _TMR5   0x000f4f       data     extern libdev18f46k22_a-pic18f46k22.asm
                   _TMR5H   0x000f50       data     extern libdev18f46k22_a-pic18f46k22.asm
                   _TMR5L   0x000f4f       data     extern libdev18f46k22_a-pic18f46k22.asm
                    _TMR6   0x000f4c       data     extern libdev18f46k22_a-pic18f46k22.asm
                     _TOS   0x000ffd       data     extern libdev18f46k22_a-pic18f46k22.asm
                    _TOSH   0x000ffe       data     extern libdev18f46k22_a-pic18f46k22.asm
                    _TOSL   0x000ffd       data     extern libdev18f46k22_a-pic18f46k22.asm
                    _TOSU   0x000fff       data     extern libdev18f46k22_a-pic18f46k22.asm
                   _TRISA   0x000f92       data     extern libdev18f46k22_a-pic18f46k22.asm
               _TRISAbits   0x000f92       data     extern libdev18f46k22_a-pic18f46k22.asm
                   _TRISB   0x000f93       data     extern libdev18f46k22_a-pic18f46k22.asm
               _TRISBbits   0x000f93       data     extern libdev18f46k22_a-pic18f46k22.asm
                   _TRISC   0x000f94       data     extern libdev18f46k22_a-pic18f46k22.asm
               _TRISCbits   0x000f94       data     extern libdev18f46k22_a-pic18f46k22.asm
                   _TRISD   0x000f95       data     extern libdev18f46k22_a-pic18f46k22.asm
               _TRISDbits   0x000f95       data     extern libdev18f46k22_a-pic18f46k22.asm
                   _TRISE   0x000f96       data     extern libdev18f46k22_a-pic18f46k22.asm
               _TRISEbits   0x000f96       data     extern libdev18f46k22_a-pic18f46k22.asm
                  _TX1REG   0x000fad       data     extern libdev18f46k22_a-pic18f46k22.asm
                  _TX1STA   0x000fac       data     extern libdev18f46k22_a-pic18f46k22.asm
              _TX1STAbits   0x000fac       data     extern libdev18f46k22_a-pic18f46k22.asm
                  _TX2REG   0x000f73       data     extern libdev18f46k22_a-pic18f46k22.asm
                  _TX2STA   0x000f72       data     extern libdev18f46k22_a-pic18f46k22.asm
              _TX2STAbits   0x000f72       data     extern libdev18f46k22_a-pic18f46k22.asm
                   _TXREG   0x000fad       data     extern libdev18f46k22_a-pic18f46k22.asm
                  _TXREG1   0x000fad       data     extern libdev18f46k22_a-pic18f46k22.asm
                  _TXREG2   0x000f73       data     extern libdev18f46k22_a-pic18f46k22.asm
                   _TXSTA   0x000fac       data     extern libdev18f46k22_a-pic18f46k22.asm
                  _TXSTA1   0x000fac       data     extern libdev18f46k22_a-pic18f46k22.asm
              _TXSTA1bits   0x000fac       data     extern libdev18f46k22_a-pic18f46k22.asm
                  _TXSTA2   0x000f72       data     extern libdev18f46k22_a-pic18f46k22.asm
              _TXSTA2bits   0x000f72       data     extern libdev18f46k22_a-pic18f46k22.asm
               _TXSTAbits   0x000fac       data     extern libdev18f46k22_a-pic18f46k22.asm
                _VREFCON0   0x000f42       data     extern libdev18f46k22_a-pic18f46k22.asm
            _VREFCON0bits   0x000f42       data     extern libdev18f46k22_a-pic18f46k22.asm
                _VREFCON1   0x000f41       data     extern libdev18f46k22_a-pic18f46k22.asm
            _VREFCON1bits   0x000f41       data     extern libdev18f46k22_a-pic18f46k22.asm
                _VREFCON2   0x000f40       data     extern libdev18f46k22_a-pic18f46k22.asm
            _VREFCON2bits   0x000f40       data     extern libdev18f46k22_a-pic18f46k22.asm
                  _WDTCON   0x000fd1       data     extern libdev18f46k22_a-pic18f46k22.asm
              _WDTCONbits   0x000fd1       data     extern libdev18f46k22_a-pic18f46k22.asm
                    _WPUB   0x000f61       data     extern libdev18f46k22_a-pic18f46k22.asm
                _WPUBbits   0x000f61       data     extern libdev18f46k22_a-pic18f46k22.asm
                    _WREG   0x000fe8       data     extern libdev18f46k22_a-pic18f46k22.asm
                ___EEPROM   0xf00000    program     extern build/default/production/stepperCon.asm
     ___eeprom16_gptrget1   0x00231a    program     extern eeprom16_gptrget1.asm
     ___eeprom16_gptrput1   0x0022d4    program     extern eeprom16_gptrput1.asm
        ___eeprom16_write   0x00234c    program     extern eeprom16_write.asm
       ___eeprom_gptrget1   0x000004    program     extern gptr/eeprom16_gptrget1_dispatch.S
       ___eeprom_gptrput1   0x00000c    program     extern gptr/eeprom16_gptrput1_dispatch.S
               ___fs2uint   0x001e34    program     extern fs2uint.asm
              ___fs2ulong   0x0019e2    program     extern fs2ulong.asm
     ___fs2ulong_fl1_1_22   0x000f10       data     static fs2ulong.asm
                 ___fsadd   0x000a5e    program     extern fsadd.asm
        ___fsadd_fl1_1_22   0x0000ea       data     static fsadd.asm
        ___fsadd_fl2_1_22   0x0000ee       data     static fsadd.asm
                 ___fsdiv   0x000dc2    program     extern fsdiv.asm
        ___fsdiv_fl1_1_22   0x000f14       data     static fsdiv.asm
        ___fsdiv_fl2_1_22   0x000f18       data     static fsdiv.asm
                 ___fsmul   0x0006e6    program     extern fsmul.asm
        ___fsmul_fl1_1_22   0x0000f2       data     static fsmul.asm
        ___fsmul_fl2_1_22   0x0000f6       data     static fsmul.asm
               ___sint2fs   0x001f46    program     extern sint2fs.asm
              ___slong2fs   0x0018ec    program     extern slong2fs.asm
                ___uflags   0x0000e0       data     extern crt0iz.asm
               ___uint2fs   0x00209e    program     extern uint2fs.asm
              ___ulong2fs   0x001522    program     extern ulong2fs.asm
      ___ulong2fs_fl_1_22   0x000f1c       data     static ulong2fs.asm
                  __entry   0x000000    program     extern crt0iz.asm
               __gptrget1   0x0022f8    program     extern gptrget1.asm
               __gptrput1   0x002336    program     extern gptrput1.asm
               __moduchar   0x001fba    program     extern moduchar.asm
                __mullong   0x00111a    program     extern mullong.asm
         __mullong_t1_1_2   0x000f08       data     static mullong.asm
         __mullong_t2_1_2   0x000f0c       data     static mullong.asm
          __mullong_t_1_2   0x000f04       data     static mullong.asm
          __mullong_x_1_2   0x0000fa       data     static mullong.asm
          __mullong_y_1_2   0x000f00       data     static mullong.asm
                __startup   0x001ba0    program     extern crt0iz.asm
                 _a_decay   0x000f2b       data     extern build/default/production/stepperCon.asm
                 _a_state   0x000f28       data     extern build/default/production/stepperCon.asm
              _activeInts   0x0021f6    program     extern build/default/production/stepperCon.asm
                 _b_decay   0x000f2d       data     extern build/default/production/stepperCon.asm
                 _b_state   0x000f2a       data     extern build/default/production/stepperCon.asm
                   _cinit   0x00235e    program     extern 
              _compsSetup   0x00222c    program     extern build/default/production/_ext/899019879/sc_setup.asm
                _delay_ms   0x00202e    program     extern build/default/production/stepperCon.asm
                     _dir   0x000f25       data     extern build/default/production/stepperCon.asm
                 _highInt   0x001698    program     static build/default/production/stepperCon.asm
                _i2cSetup   0x00225e    program     extern build/default/production/stepperCon.asm
             _i2c_address   0x000f32       data     extern build/default/production/stepperCon.asm
             _i2c_counter   0x000f2f       data     extern build/default/production/stepperCon.asm
               _i2c_dirty   0x000f31       data     extern build/default/production/stepperCon.asm
            _i2c_reg_addr   0x000f30       data     extern build/default/production/stepperCon.asm
                _i2c_regs   0x0000e1       data     extern build/default/production/stepperCon.asm
                _idleInts   0x0022ae    program     extern build/default/production/stepperCon.asm
                _intSetup   0x002286    program     extern build/default/production/_ext/899019879/sc_setup.asm
                 _ioSetup   0x002164    program     extern build/default/production/_ext/899019879/sc_setup.asm
                 _lab_01_   0x002344    program     static gptrput1.asm
                 _lab_01_   0x002304    program     static gptrget1.asm
                  _lowInt   0x0017d0    program     static build/default/production/stepperCon.asm
                    _main   0x00001c    program     extern build/default/production/stepperCon.asm
                 _max_amp   0x000f22       data     extern build/default/production/stepperCon.asm
           _phTimersSetup   0x002108    program     extern build/default/production/_ext/899019879/sc_setup.asm
                   _pol_a   0x000f2c       data     extern build/default/production/stepperCon.asm
                   _pol_b   0x000f2e       data     extern build/default/production/stepperCon.asm
             _prep_pwm_lu   0x00132e    program     extern build/default/production/stepperCon.asm
                _pwmSetup   0x0021b0    program     extern build/default/production/_ext/899019879/sc_setup.asm
                _pwm_base   0x000060       data     static build/default/production/stepperCon.asm
                  _pwm_lu   0x000200       data     extern build/default/production/stepperCon.asm
               _read_regs   0x001d92    program     extern build/default/production/_ext/899019879/registers.asm
              _resetCheck   0x001cf0    program     extern build/default/production/_ext/899019879/sc_setup.asm
                 _set_amp   0x000f20       data     extern build/default/production/stepperCon.asm
             _set_op_vars   0x001c4c    program     extern build/default/production/stepperCon.asm
                    _skip   0x000f33       data     extern build/default/production/stepperCon.asm
                   _stack   0x000100       data     extern stack/stack.S
               _stack_end   0x0001ff       data     extern stack/stack.S
                   _state   0x000f24       data     extern build/default/production/stepperCon.asm
                  _step_a   0x000f34       data     extern build/default/production/stepperCon.asm
                  _step_b   0x000f35       data     extern build/default/production/stepperCon.asm
              _store_regs   0x001ad4    program     extern build/default/production/_ext/899019879/registers.asm
            _t_blank_high   0x000f26       data     extern build/default/production/stepperCon.asm
             _t_blank_low   0x000f27       data     extern build/default/production/stepperCon.asm
                   _t_off   0x000f29       data     extern build/default/production/stepperCon.asm
              _zero_cross   0x0000fe       data     extern build/default/production/stepperCon.asm
               clear_loop   0x001bb6    program     static crt0iz.asm
                copy_loop   0x001c24    program     static crt0iz.asm
            copy_loop_dec   0x001c2a    program     static crt0iz.asm
               entry_loop   0x001bd6    program     static crt0iz.asm
           entry_loop_dec   0x001c3e    program     static crt0iz.asm
         ivec_0x1_highInt   0x000008    program     static build/default/production/stepperCon.asm
          ivec_0x2_lowInt   0x000018    program     static build/default/production/stepperCon.asm
                   lockup   0x001c4a    program     static crt0iz.asm
                    r0x00   0x000000       data     static build/default/production/stepperCon.asm
                    r0x00   0x000000       data     static build/default/production/_ext/899019879/sc_setup.asm
                    r0x00   0x000000       data     static build/default/production/_ext/899019879/registers.asm
                    r0x00   0x000000       data     static fsadd.asm
                    r0x00   0x000000       data     static fsmul.asm
                    r0x00   0x000000       data     static mullong.asm
                    r0x00   0x000000       data     static uint2fs.asm
                    r0x00   0x000000       data     static fs2uint.asm
                    r0x00   0x000000       data     static fs2ulong.asm
                    r0x00   0x000000       data     static fsdiv.asm
                    r0x00   0x000000       data     static ulong2fs.asm
                    r0x00   0x000000       data     static sint2fs.asm
                    r0x00   0x000000       data     static slong2fs.asm
                    r0x00   0x000000       data     static moduchar.asm
                    r0x01   0x000001       data     static build/default/production/stepperCon.asm
                    r0x01   0x000001       data     static build/default/production/_ext/899019879/sc_setup.asm
                    r0x01   0x000001       data     static build/default/production/_ext/899019879/registers.asm
                    r0x01   0x000001       data     static fsadd.asm
                    r0x01   0x000001       data     static fsmul.asm
                    r0x01   0x000001       data     static mullong.asm
                    r0x01   0x000001       data     static uint2fs.asm
                    r0x01   0x000001       data     static fs2uint.asm
                    r0x01   0x000001       data     static fs2ulong.asm
                    r0x01   0x000001       data     static fsdiv.asm
                    r0x01   0x000001       data     static ulong2fs.asm
                    r0x01   0x000001       data     static sint2fs.asm
                    r0x01   0x000001       data     static slong2fs.asm
                    r0x01   0x000001       data     static moduchar.asm
                    r0x02   0x000002       data     static build/default/production/stepperCon.asm
                    r0x02   0x000002       data     static build/default/production/_ext/899019879/registers.asm
                    r0x02   0x000002       data     static fsadd.asm
                    r0x02   0x000002       data     static fsmul.asm
                    r0x02   0x000002       data     static mullong.asm
                    r0x02   0x000002       data     static uint2fs.asm
                    r0x02   0x000002       data     static fs2uint.asm
                    r0x02   0x000002       data     static fs2ulong.asm
                    r0x02   0x000002       data     static fsdiv.asm
                    r0x02   0x000002       data     static ulong2fs.asm
                    r0x02   0x000002       data     static sint2fs.asm
                    r0x02   0x000002       data     static slong2fs.asm
                    r0x02   0x000002       data     static moduchar.asm
                    r0x03   0x000003       data     static build/default/production/stepperCon.asm
                    r0x03   0x000003       data     static build/default/production/_ext/899019879/registers.asm
                    r0x03   0x000003       data     static fsadd.asm
                    r0x03   0x000003       data     static fsmul.asm
                    r0x03   0x000003       data     static mullong.asm
                    r0x03   0x000003       data     static uint2fs.asm
                    r0x03   0x000003       data     static fs2uint.asm
                    r0x03   0x000003       data     static fs2ulong.asm
                    r0x03   0x000003       data     static fsdiv.asm
                    r0x03   0x000003       data     static ulong2fs.asm
                    r0x03   0x000003       data     static sint2fs.asm
                    r0x03   0x000003       data     static slong2fs.asm
                    r0x03   0x000003       data     static moduchar.asm
                    r0x04   0x000004       data     static build/default/production/stepperCon.asm
                    r0x04   0x000004       data     static build/default/production/_ext/899019879/registers.asm
                    r0x04   0x000004       data     static fsadd.asm
                    r0x04   0x000004       data     static fsmul.asm
                    r0x04   0x000004       data     static mullong.asm
                    r0x04   0x000004       data     static fs2ulong.asm
                    r0x04   0x000004       data     static fsdiv.asm
                    r0x04   0x000004       data     static ulong2fs.asm
                    r0x04   0x000004       data     static slong2fs.asm
                    r0x05   0x000005       data     static build/default/production/stepperCon.asm
                    r0x05   0x000005       data     static build/default/production/_ext/899019879/registers.asm
                    r0x05   0x000005       data     static fsadd.asm
                    r0x05   0x000005       data     static fsmul.asm
                    r0x05   0x000005       data     static mullong.asm
                    r0x05   0x000005       data     static fs2ulong.asm
                    r0x05   0x000005       data     static fsdiv.asm
                    r0x05   0x000005       data     static ulong2fs.asm
                    r0x05   0x000005       data     static slong2fs.asm
                    r0x06   0x000006       data     static build/default/production/stepperCon.asm
                    r0x06   0x000006       data     static build/default/production/_ext/899019879/registers.asm
                    r0x06   0x000006       data     static fsadd.asm
                    r0x06   0x000006       data     static fsmul.asm
                    r0x06   0x000006       data     static mullong.asm
                    r0x06   0x000006       data     static fsdiv.asm
                    r0x06   0x000006       data     static ulong2fs.asm
                    r0x06   0x000006       data     static slong2fs.asm
                    r0x07   0x000007       data     static build/default/production/stepperCon.asm
                    r0x07   0x000007       data     static build/default/production/_ext/899019879/registers.asm
                    r0x07   0x000007       data     static fsadd.asm
                    r0x07   0x000007       data     static fsmul.asm
                    r0x07   0x000007       data     static mullong.asm
                    r0x07   0x000007       data     static fsdiv.asm
                    r0x07   0x000007       data     static ulong2fs.asm
                    r0x07   0x000007       data     static slong2fs.asm
                    r0x08   0x000008       data     static build/default/production/stepperCon.asm
                    r0x08   0x000008       data     static build/default/production/_ext/899019879/registers.asm
                    r0x08   0x000008       data     static fsadd.asm
                    r0x08   0x000008       data     static fsmul.asm
                    r0x08   0x000008       data     static fsdiv.asm
                    r0x08   0x000008       data     static ulong2fs.asm
                    r0x09   0x000009       data     static build/default/production/stepperCon.asm
                    r0x09   0x000009       data     static fsadd.asm
                    r0x09   0x000009       data     static fsmul.asm
                    r0x09   0x000009       data     static fsdiv.asm
                    r0x09   0x000009       data     static ulong2fs.asm
                    r0x0a   0x00000a       data     static build/default/production/stepperCon.asm
                    r0x0a   0x00000a       data     static fsadd.asm
                    r0x0a   0x00000a       data     static fsmul.asm
                    r0x0a   0x00000a       data     static fsdiv.asm
                    r0x0a   0x00000a       data     static ulong2fs.asm
                    r0x0b   0x00000b       data     static fsadd.asm
                    r0x0b   0x00000b       data     static fsmul.asm
                    r0x0b   0x00000b       data     static fsdiv.asm
                    r0x0b   0x00000b       data     static ulong2fs.asm
                    r0x0c   0x00000c       data     static fsadd.asm
                    r0x0c   0x00000c       data     static fsmul.asm
                    r0x0c   0x00000c       data     static fsdiv.asm
                    r0x0d   0x00000d       data     static fsadd.asm
                    r0x0d   0x00000d       data     static fsmul.asm
                    r0x0d   0x00000d       data     static fsdiv.asm
                    r0x0e   0x00000e       data     static fsadd.asm
                    r0x0e   0x00000e       data     static fsmul.asm
                    r0x0e   0x00000e       data     static fsdiv.asm
                    r0x0f   0x00000f       data     static fsadd.asm
                    r0x0f   0x00000f       data     static fsmul.asm
                    r0x0f   0x00000f       data     static fsdiv.asm
                    r0x10   0x000010       data     static fsadd.asm
                    r0x10   0x000010       data     static fsdiv.asm
                    r0x11   0x000011       data     static fsdiv.asm
                    r0x12   0x000012       data     static fsdiv.asm
                    r0x13   0x000013       data     static fsdiv.asm
                    r0x14   0x000014       data     static fsdiv.asm
                    r0x15   0x000015       data     static fsdiv.asm
                    r0x16   0x000016       data     static fsdiv.asm
           wait_till_done   0x002356    program     static eeprom16_write.asm



                              Symbols - Sorted by Address
                     Name    Address   Location    Storage File
                ---------  ---------  ---------  --------- ---------
                  __entry   0x000000    program     extern crt0iz.asm
                    r0x00   0x000000       data     static build/default/production/stepperCon.asm
                    r0x00   0x000000       data     static build/default/production/_ext/899019879/sc_setup.asm
                    r0x00   0x000000       data     static build/default/production/_ext/899019879/registers.asm
                    r0x00   0x000000       data     static fsadd.asm
                    r0x00   0x000000       data     static fsmul.asm
                    r0x00   0x000000       data     static mullong.asm
                    r0x00   0x000000       data     static uint2fs.asm
                    r0x00   0x000000       data     static fs2uint.asm
                    r0x00   0x000000       data     static fs2ulong.asm
                    r0x00   0x000000       data     static fsdiv.asm
                    r0x00   0x000000       data     static ulong2fs.asm
                    r0x00   0x000000       data     static sint2fs.asm
                    r0x00   0x000000       data     static slong2fs.asm
                    r0x00   0x000000       data     static moduchar.asm
                    r0x01   0x000001       data     static build/default/production/stepperCon.asm
                    r0x01   0x000001       data     static build/default/production/_ext/899019879/sc_setup.asm
                    r0x01   0x000001       data     static build/default/production/_ext/899019879/registers.asm
                    r0x01   0x000001       data     static fsadd.asm
                    r0x01   0x000001       data     static fsmul.asm
                    r0x01   0x000001       data     static mullong.asm
                    r0x01   0x000001       data     static uint2fs.asm
                    r0x01   0x000001       data     static fs2uint.asm
                    r0x01   0x000001       data     static fs2ulong.asm
                    r0x01   0x000001       data     static fsdiv.asm
                    r0x01   0x000001       data     static ulong2fs.asm
                    r0x01   0x000001       data     static sint2fs.asm
                    r0x01   0x000001       data     static slong2fs.asm
                    r0x01   0x000001       data     static moduchar.asm
                    r0x02   0x000002       data     static build/default/production/stepperCon.asm
                    r0x02   0x000002       data     static build/default/production/_ext/899019879/registers.asm
                    r0x02   0x000002       data     static fsadd.asm
                    r0x02   0x000002       data     static fsmul.asm
                    r0x02   0x000002       data     static mullong.asm
                    r0x02   0x000002       data     static uint2fs.asm
                    r0x02   0x000002       data     static fs2uint.asm
                    r0x02   0x000002       data     static fs2ulong.asm
                    r0x02   0x000002       data     static fsdiv.asm
                    r0x02   0x000002       data     static ulong2fs.asm
                    r0x02   0x000002       data     static sint2fs.asm
                    r0x02   0x000002       data     static slong2fs.asm
                    r0x02   0x000002       data     static moduchar.asm
                    r0x03   0x000003       data     static build/default/production/stepperCon.asm
                    r0x03   0x000003       data     static build/default/production/_ext/899019879/registers.asm
                    r0x03   0x000003       data     static fsadd.asm
                    r0x03   0x000003       data     static fsmul.asm
                    r0x03   0x000003       data     static mullong.asm
                    r0x03   0x000003       data     static uint2fs.asm
                    r0x03   0x000003       data     static fs2uint.asm
                    r0x03   0x000003       data     static fs2ulong.asm
                    r0x03   0x000003       data     static fsdiv.asm
                    r0x03   0x000003       data     static ulong2fs.asm
                    r0x03   0x000003       data     static sint2fs.asm
                    r0x03   0x000003       data     static slong2fs.asm
                    r0x03   0x000003       data     static moduchar.asm
       ___eeprom_gptrget1   0x000004    program     extern gptr/eeprom16_gptrget1_dispatch.S
                    r0x04   0x000004       data     static build/default/production/stepperCon.asm
                    r0x04   0x000004       data     static build/default/production/_ext/899019879/registers.asm
                    r0x04   0x000004       data     static fsadd.asm
                    r0x04   0x000004       data     static fsmul.asm
                    r0x04   0x000004       data     static mullong.asm
                    r0x04   0x000004       data     static fs2ulong.asm
                    r0x04   0x000004       data     static fsdiv.asm
                    r0x04   0x000004       data     static ulong2fs.asm
                    r0x04   0x000004       data     static slong2fs.asm
                    r0x05   0x000005       data     static build/default/production/stepperCon.asm
                    r0x05   0x000005       data     static build/default/production/_ext/899019879/registers.asm
                    r0x05   0x000005       data     static fsadd.asm
                    r0x05   0x000005       data     static fsmul.asm
                    r0x05   0x000005       data     static mullong.asm
                    r0x05   0x000005       data     static fs2ulong.asm
                    r0x05   0x000005       data     static fsdiv.asm
                    r0x05   0x000005       data     static ulong2fs.asm
                    r0x05   0x000005       data     static slong2fs.asm
                    r0x06   0x000006       data     static build/default/production/stepperCon.asm
                    r0x06   0x000006       data     static build/default/production/_ext/899019879/registers.asm
                    r0x06   0x000006       data     static fsadd.asm
                    r0x06   0x000006       data     static fsmul.asm
                    r0x06   0x000006       data     static mullong.asm
                    r0x06   0x000006       data     static fsdiv.asm
                    r0x06   0x000006       data     static ulong2fs.asm
                    r0x06   0x000006       data     static slong2fs.asm
                    r0x07   0x000007       data     static build/default/production/stepperCon.asm
                    r0x07   0x000007       data     static build/default/production/_ext/899019879/registers.asm
                    r0x07   0x000007       data     static fsadd.asm
                    r0x07   0x000007       data     static fsmul.asm
                    r0x07   0x000007       data     static mullong.asm
                    r0x07   0x000007       data     static fsdiv.asm
                    r0x07   0x000007       data     static ulong2fs.asm
                    r0x07   0x000007       data     static slong2fs.asm
         ivec_0x1_highInt   0x000008    program     static build/default/production/stepperCon.asm
                    r0x08   0x000008       data     static build/default/production/stepperCon.asm
                    r0x08   0x000008       data     static build/default/production/_ext/899019879/registers.asm
                    r0x08   0x000008       data     static fsadd.asm
                    r0x08   0x000008       data     static fsmul.asm
                    r0x08   0x000008       data     static fsdiv.asm
                    r0x08   0x000008       data     static ulong2fs.asm
                    r0x09   0x000009       data     static build/default/production/stepperCon.asm
                    r0x09   0x000009       data     static fsadd.asm
                    r0x09   0x000009       data     static fsmul.asm
                    r0x09   0x000009       data     static fsdiv.asm
                    r0x09   0x000009       data     static ulong2fs.asm
                    r0x0a   0x00000a       data     static build/default/production/stepperCon.asm
                    r0x0a   0x00000a       data     static fsadd.asm
                    r0x0a   0x00000a       data     static fsmul.asm
                    r0x0a   0x00000a       data     static fsdiv.asm
                    r0x0a   0x00000a       data     static ulong2fs.asm
                    r0x0b   0x00000b       data     static fsadd.asm
                    r0x0b   0x00000b       data     static fsmul.asm
                    r0x0b   0x00000b       data     static fsdiv.asm
                    r0x0b   0x00000b       data     static ulong2fs.asm
       ___eeprom_gptrput1   0x00000c    program     extern gptr/eeprom16_gptrput1_dispatch.S
                    r0x0c   0x00000c       data     static fsadd.asm
                    r0x0c   0x00000c       data     static fsmul.asm
                    r0x0c   0x00000c       data     static fsdiv.asm
                    r0x0d   0x00000d       data     static fsadd.asm
                    r0x0d   0x00000d       data     static fsmul.asm
                    r0x0d   0x00000d       data     static fsdiv.asm
                    r0x0e   0x00000e       data     static fsadd.asm
                    r0x0e   0x00000e       data     static fsmul.asm
                    r0x0e   0x00000e       data     static fsdiv.asm
                    r0x0f   0x00000f       data     static fsadd.asm
                    r0x0f   0x00000f       data     static fsmul.asm
                    r0x0f   0x00000f       data     static fsdiv.asm
                    r0x10   0x000010       data     static fsadd.asm
                    r0x10   0x000010       data     static fsdiv.asm
                    r0x11   0x000011       data     static fsdiv.asm
                    r0x12   0x000012       data     static fsdiv.asm
                    r0x13   0x000013       data     static fsdiv.asm
                    r0x14   0x000014       data     static fsdiv.asm
                    r0x15   0x000015       data     static fsdiv.asm
                    r0x16   0x000016       data     static fsdiv.asm
          ivec_0x2_lowInt   0x000018    program     static build/default/production/stepperCon.asm
                    _main   0x00001c    program     extern build/default/production/stepperCon.asm
               _00299_DS_   0x000030    program     static build/default/production/stepperCon.asm
                _pwm_base   0x000060       data     static build/default/production/stepperCon.asm
               _00437_DS_   0x000090    program     static build/default/production/stepperCon.asm
               _00610_DS_   0x00009c    program     static build/default/production/stepperCon.asm
               _00612_DS_   0x0000a4    program     static build/default/production/stepperCon.asm
               _00614_DS_   0x0000b0    program     static build/default/production/stepperCon.asm
               _00616_DS_   0x0000ba    program     static build/default/production/stepperCon.asm
               _00618_DS_   0x0000c6    program     static build/default/production/stepperCon.asm
               _00300_DS_   0x0000c8    program     static build/default/production/stepperCon.asm
                ___uflags   0x0000e0       data     extern crt0iz.asm
                _i2c_regs   0x0000e1       data     extern build/default/production/stepperCon.asm
        ___fsadd_fl1_1_22   0x0000ea       data     static fsadd.asm
        ___fsadd_fl2_1_22   0x0000ee       data     static fsadd.asm
        ___fsmul_fl1_1_22   0x0000f2       data     static fsmul.asm
        ___fsmul_fl2_1_22   0x0000f6       data     static fsmul.asm
          __mullong_x_1_2   0x0000fa       data     static mullong.asm
               _00302_DS_   0x0000fc    program     static build/default/production/stepperCon.asm
              _zero_cross   0x0000fe       data     extern build/default/production/stepperCon.asm
               _00303_DS_   0x000100    program     static build/default/production/stepperCon.asm
                   _stack   0x000100       data     extern stack/stack.S
               _00311_DS_   0x000126    program     static build/default/production/stepperCon.asm
               _00308_DS_   0x000134    program     static build/default/production/stepperCon.asm
               _00305_DS_   0x000144    program     static build/default/production/stepperCon.asm
               _00312_DS_   0x000148    program     static build/default/production/stepperCon.asm
               _00320_DS_   0x000158    program     static build/default/production/stepperCon.asm
               _00317_DS_   0x000166    program     static build/default/production/stepperCon.asm
               _00314_DS_   0x000176    program     static build/default/production/stepperCon.asm
               _00321_DS_   0x00017a    program     static build/default/production/stepperCon.asm
               _00628_DS_   0x0001a6    program     static build/default/production/stepperCon.asm
               _00325_DS_   0x0001ac    program     static build/default/production/stepperCon.asm
               _00326_DS_   0x0001b4    program     static build/default/production/stepperCon.asm
               _00323_DS_   0x0001c2    program     static build/default/production/stepperCon.asm
               _00327_DS_   0x0001c8    program     static build/default/production/stepperCon.asm
               _00631_DS_   0x0001d0    program     static build/default/production/stepperCon.asm
               _00332_DS_   0x0001d6    program     static build/default/production/stepperCon.asm
               _00333_DS_   0x0001de    program     static build/default/production/stepperCon.asm
               _00330_DS_   0x0001ec    program     static build/default/production/stepperCon.asm
               _00334_DS_   0x0001f2    program     static build/default/production/stepperCon.asm
               _stack_end   0x0001ff       data     extern stack/stack.S
                  _pwm_lu   0x000200       data     extern build/default/production/stepperCon.asm
               _00340_DS_   0x000208    program     static build/default/production/stepperCon.asm
               _00337_DS_   0x000218    program     static build/default/production/stepperCon.asm
               _00341_DS_   0x000220    program     static build/default/production/stepperCon.asm
               _00346_DS_   0x00022e    program     static build/default/production/stepperCon.asm
               _00343_DS_   0x00023e    program     static build/default/production/stepperCon.asm
               _00347_DS_   0x000246    program     static build/default/production/stepperCon.asm
               _00348_DS_   0x000352    program     static build/default/production/stepperCon.asm
               _00356_DS_   0x0003a4    program     static build/default/production/stepperCon.asm
               _00353_DS_   0x0003b2    program     static build/default/production/stepperCon.asm
               _00350_DS_   0x0003c4    program     static build/default/production/stepperCon.asm
               _00357_DS_   0x0003c8    program     static build/default/production/stepperCon.asm
               _00366_DS_   0x0003e2    program     static build/default/production/stepperCon.asm
               _00363_DS_   0x0003f0    program     static build/default/production/stepperCon.asm
               _00360_DS_   0x000402    program     static build/default/production/stepperCon.asm
               _00367_DS_   0x000406    program     static build/default/production/stepperCon.asm
               _00373_DS_   0x000414    program     static build/default/production/stepperCon.asm
               _00370_DS_   0x000424    program     static build/default/production/stepperCon.asm
               _00374_DS_   0x00042c    program     static build/default/production/stepperCon.asm
               _00379_DS_   0x00043a    program     static build/default/production/stepperCon.asm
               _00376_DS_   0x00044a    program     static build/default/production/stepperCon.asm
               _00380_DS_   0x000452    program     static build/default/production/stepperCon.asm
               _00381_DS_   0x00045c    program     static build/default/production/stepperCon.asm
               _00654_DS_   0x000478    program     static build/default/production/stepperCon.asm
               _00383_DS_   0x00047c    program     static build/default/production/stepperCon.asm
               _00656_DS_   0x00048a    program     static build/default/production/stepperCon.asm
               _00391_DS_   0x000490    program     static build/default/production/stepperCon.asm
               _00387_DS_   0x0004a2    program     static build/default/production/stepperCon.asm
               _00392_DS_   0x0004b4    program     static build/default/production/stepperCon.asm
               _00658_DS_   0x0004bc    program     static build/default/production/stepperCon.asm
               _00659_DS_   0x0004f8    program     static build/default/production/stepperCon.asm
               _00396_DS_   0x0004fa    program     static build/default/production/stepperCon.asm
               _00397_DS_   0x000502    program     static build/default/production/stepperCon.asm
               _00661_DS_   0x000510    program     static build/default/production/stepperCon.asm
               _00394_DS_   0x000518    program     static build/default/production/stepperCon.asm
               _00398_DS_   0x00051e    program     static build/default/production/stepperCon.asm
               _00663_DS_   0x000526    program     static build/default/production/stepperCon.asm
               _00664_DS_   0x000562    program     static build/default/production/stepperCon.asm
               _00404_DS_   0x000564    program     static build/default/production/stepperCon.asm
               _00405_DS_   0x00056c    program     static build/default/production/stepperCon.asm
               _00666_DS_   0x00057a    program     static build/default/production/stepperCon.asm
               _00402_DS_   0x000582    program     static build/default/production/stepperCon.asm
               _00406_DS_   0x000588    program     static build/default/production/stepperCon.asm
               _00409_DS_   0x00061c    program     static build/default/production/stepperCon.asm
               _00670_DS_   0x000628    program     static build/default/production/stepperCon.asm
               _00672_DS_   0x000630    program     static build/default/production/stepperCon.asm
               _00411_DS_   0x00063c    program     static build/default/production/stepperCon.asm
               _00414_DS_   0x000642    program     static build/default/production/stepperCon.asm
               _00415_DS_   0x000644    program     static build/default/production/stepperCon.asm
               _00417_DS_   0x00064c    program     static build/default/production/stepperCon.asm
               _00674_DS_   0x000658    program     static build/default/production/stepperCon.asm
               _00676_DS_   0x000660    program     static build/default/production/stepperCon.asm
               _00420_DS_   0x00066c    program     static build/default/production/stepperCon.asm
               _00423_DS_   0x000672    program     static build/default/production/stepperCon.asm
               _00424_DS_   0x000674    program     static build/default/production/stepperCon.asm
               _00426_DS_   0x00067c    program     static build/default/production/stepperCon.asm
               _00430_DS_   0x0006a0    program     static build/default/production/stepperCon.asm
               _00432_DS_   0x0006aa    program     static build/default/production/stepperCon.asm
                 ___fsmul   0x0006e6    program     extern fsmul.asm
               _00105_DS_   0x000796    program     static fsmul.asm
               _00106_DS_   0x0007a0    program     static fsmul.asm
               _00109_DS_   0x00093e    program     static fsmul.asm
               _00110_DS_   0x000960    program     static fsmul.asm
               _00152_DS_   0x00096e    program     static fsmul.asm
               _00119_DS_   0x000980    program     static fsmul.asm
               _00120_DS_   0x000988    program     static fsmul.asm
               _00115_DS_   0x0009a2    program     static fsmul.asm
               _00112_DS_   0x0009b6    program     static fsmul.asm
               _00121_DS_   0x0009c6    program     static fsmul.asm
               _00122_DS_   0x0009ce    program     static fsmul.asm
               _00116_DS_   0x000a0c    program     static fsmul.asm
               _00117_DS_   0x000a1c    program     static fsmul.asm
                 ___fsadd   0x000a5e    program     extern fsadd.asm
               _00106_DS_   0x000b24    program     static fsadd.asm
               _00108_DS_   0x000b42    program     static fsadd.asm
               _00181_DS_   0x000b74    program     static fsadd.asm
               _00110_DS_   0x000b88    program     static fsadd.asm
               _00182_DS_   0x000ba2    program     static fsadd.asm
               _00112_DS_   0x000bb6    program     static fsadd.asm
               _00114_DS_   0x000c00    program     static fsadd.asm
               _00116_DS_   0x000c22    program     static fsadd.asm
               _00189_DS_   0x000c34    program     static fsadd.asm
               _00191_DS_   0x000c46    program     static fsadd.asm
               _00190_DS_   0x000c56    program     static fsadd.asm
               _00118_DS_   0x000c58    program     static fsadd.asm
               _00193_DS_   0x000c68    program     static fsadd.asm
               _00192_DS_   0x000c78    program     static fsadd.asm
               _00119_DS_   0x000c80    program     static fsadd.asm
               _00194_DS_   0x000cac    program     static fsadd.asm
               _00123_DS_   0x000cb8    program     static fsadd.asm
               _00125_DS_   0x000ccc    program     static fsadd.asm
               _00195_DS_   0x000cf2    program     static fsadd.asm
               _00130_DS_   0x000d06    program     static fsadd.asm
               _00129_DS_   0x000d1a    program     static fsadd.asm
               _00132_DS_   0x000d2a    program     static fsadd.asm
               _00133_DS_   0x000d78    program     static fsadd.asm
                 ___fsdiv   0x000dc2    program     extern fsdiv.asm
               _00106_DS_   0x000eea    program     static fsdiv.asm
               _00108_DS_   0x000f00    program     static fsdiv.asm
          __mullong_y_1_2   0x000f00       data     static mullong.asm
          __mullong_t_1_2   0x000f04       data     static mullong.asm
         __mullong_t1_1_2   0x000f08       data     static mullong.asm
         __mullong_t2_1_2   0x000f0c       data     static mullong.asm
     ___fs2ulong_fl1_1_22   0x000f10       data     static fs2ulong.asm
        ___fsdiv_fl1_1_22   0x000f14       data     static fsdiv.asm
        ___fsdiv_fl2_1_22   0x000f18       data     static fsdiv.asm
      ___ulong2fs_fl_1_22   0x000f1c       data     static ulong2fs.asm
                 _set_amp   0x000f20       data     extern build/default/production/stepperCon.asm
                 _max_amp   0x000f22       data     extern build/default/production/stepperCon.asm
                   _state   0x000f24       data     extern build/default/production/stepperCon.asm
                     _dir   0x000f25       data     extern build/default/production/stepperCon.asm
            _t_blank_high   0x000f26       data     extern build/default/production/stepperCon.asm
             _t_blank_low   0x000f27       data     extern build/default/production/stepperCon.asm
                 _a_state   0x000f28       data     extern build/default/production/stepperCon.asm
                   _t_off   0x000f29       data     extern build/default/production/stepperCon.asm
                 _b_state   0x000f2a       data     extern build/default/production/stepperCon.asm
                 _a_decay   0x000f2b       data     extern build/default/production/stepperCon.asm
                   _pol_a   0x000f2c       data     extern build/default/production/stepperCon.asm
                 _b_decay   0x000f2d       data     extern build/default/production/stepperCon.asm
                   _pol_b   0x000f2e       data     extern build/default/production/stepperCon.asm
             _i2c_counter   0x000f2f       data     extern build/default/production/stepperCon.asm
            _i2c_reg_addr   0x000f30       data     extern build/default/production/stepperCon.asm
               _i2c_dirty   0x000f31       data     extern build/default/production/stepperCon.asm
             _i2c_address   0x000f32       data     extern build/default/production/stepperCon.asm
                    _skip   0x000f33       data     extern build/default/production/stepperCon.asm
                  _step_a   0x000f34       data     extern build/default/production/stepperCon.asm
                  _step_b   0x000f35       data     extern build/default/production/stepperCon.asm
                  _ANSELA   0x000f38       data     extern libdev18f46k22_a-pic18f46k22.asm
              _ANSELAbits   0x000f38       data     extern libdev18f46k22_a-pic18f46k22.asm
                  _ANSELB   0x000f39       data     extern libdev18f46k22_a-pic18f46k22.asm
              _ANSELBbits   0x000f39       data     extern libdev18f46k22_a-pic18f46k22.asm
                  _ANSELC   0x000f3a       data     extern libdev18f46k22_a-pic18f46k22.asm
              _ANSELCbits   0x000f3a       data     extern libdev18f46k22_a-pic18f46k22.asm
                  _ANSELD   0x000f3b       data     extern libdev18f46k22_a-pic18f46k22.asm
              _ANSELDbits   0x000f3b       data     extern libdev18f46k22_a-pic18f46k22.asm
                  _ANSELE   0x000f3c       data     extern libdev18f46k22_a-pic18f46k22.asm
              _ANSELEbits   0x000f3c       data     extern libdev18f46k22_a-pic18f46k22.asm
                    _PMD2   0x000f3d       data     extern libdev18f46k22_a-pic18f46k22.asm
                _PMD2bits   0x000f3d       data     extern libdev18f46k22_a-pic18f46k22.asm
                    _PMD1   0x000f3e       data     extern libdev18f46k22_a-pic18f46k22.asm
                _PMD1bits   0x000f3e       data     extern libdev18f46k22_a-pic18f46k22.asm
                    _PMD0   0x000f3f       data     extern libdev18f46k22_a-pic18f46k22.asm
                _PMD0bits   0x000f3f       data     extern libdev18f46k22_a-pic18f46k22.asm
                 _DACCON1   0x000f40       data     extern libdev18f46k22_a-pic18f46k22.asm
             _DACCON1bits   0x000f40       data     extern libdev18f46k22_a-pic18f46k22.asm
                _VREFCON2   0x000f40       data     extern libdev18f46k22_a-pic18f46k22.asm
            _VREFCON2bits   0x000f40       data     extern libdev18f46k22_a-pic18f46k22.asm
                 _DACCON0   0x000f41       data     extern libdev18f46k22_a-pic18f46k22.asm
             _DACCON0bits   0x000f41       data     extern libdev18f46k22_a-pic18f46k22.asm
                _VREFCON1   0x000f41       data     extern libdev18f46k22_a-pic18f46k22.asm
            _VREFCON1bits   0x000f41       data     extern libdev18f46k22_a-pic18f46k22.asm
                  _FVRCON   0x000f42       data     extern libdev18f46k22_a-pic18f46k22.asm
              _FVRCONbits   0x000f42       data     extern libdev18f46k22_a-pic18f46k22.asm
                _VREFCON0   0x000f42       data     extern libdev18f46k22_a-pic18f46k22.asm
            _VREFCON0bits   0x000f42       data     extern libdev18f46k22_a-pic18f46k22.asm
                _CTMUICON   0x000f43       data     extern libdev18f46k22_a-pic18f46k22.asm
               _CTMUICONH   0x000f43       data     extern libdev18f46k22_a-pic18f46k22.asm
           _CTMUICONHbits   0x000f43       data     extern libdev18f46k22_a-pic18f46k22.asm
            _CTMUICONbits   0x000f43       data     extern libdev18f46k22_a-pic18f46k22.asm
                _CTMUCON1   0x000f44       data     extern libdev18f46k22_a-pic18f46k22.asm
            _CTMUCON1bits   0x000f44       data     extern libdev18f46k22_a-pic18f46k22.asm
                _CTMUCONL   0x000f44       data     extern libdev18f46k22_a-pic18f46k22.asm
            _CTMUCONLbits   0x000f44       data     extern libdev18f46k22_a-pic18f46k22.asm
                _CTMUCON0   0x000f45       data     extern libdev18f46k22_a-pic18f46k22.asm
            _CTMUCON0bits   0x000f45       data     extern libdev18f46k22_a-pic18f46k22.asm
                _CTMUCONH   0x000f45       data     extern libdev18f46k22_a-pic18f46k22.asm
            _CTMUCONHbits   0x000f45       data     extern libdev18f46k22_a-pic18f46k22.asm
               _00165_DS_   0x000f46    program     static fsdiv.asm
                  _SRCON1   0x000f46       data     extern libdev18f46k22_a-pic18f46k22.asm
              _SRCON1bits   0x000f46       data     extern libdev18f46k22_a-pic18f46k22.asm
                  _SRCON0   0x000f47       data     extern libdev18f46k22_a-pic18f46k22.asm
              _SRCON0bits   0x000f47       data     extern libdev18f46k22_a-pic18f46k22.asm
                _CCPTMRS1   0x000f48       data     extern libdev18f46k22_a-pic18f46k22.asm
            _CCPTMRS1bits   0x000f48       data     extern libdev18f46k22_a-pic18f46k22.asm
                _CCPTMRS0   0x000f49       data     extern libdev18f46k22_a-pic18f46k22.asm
            _CCPTMRS0bits   0x000f49       data     extern libdev18f46k22_a-pic18f46k22.asm
                   _T6CON   0x000f4a       data     extern libdev18f46k22_a-pic18f46k22.asm
               _T6CONbits   0x000f4a       data     extern libdev18f46k22_a-pic18f46k22.asm
                     _PR6   0x000f4b       data     extern libdev18f46k22_a-pic18f46k22.asm
                    _TMR6   0x000f4c       data     extern libdev18f46k22_a-pic18f46k22.asm
                  _T5GCON   0x000f4d       data     extern libdev18f46k22_a-pic18f46k22.asm
              _T5GCONbits   0x000f4d       data     extern libdev18f46k22_a-pic18f46k22.asm
                   _T5CON   0x000f4e       data     extern libdev18f46k22_a-pic18f46k22.asm
               _T5CONbits   0x000f4e       data     extern libdev18f46k22_a-pic18f46k22.asm
                    _TMR5   0x000f4f       data     extern libdev18f46k22_a-pic18f46k22.asm
                   _TMR5L   0x000f4f       data     extern libdev18f46k22_a-pic18f46k22.asm
                   _TMR5H   0x000f50       data     extern libdev18f46k22_a-pic18f46k22.asm
                   _T4CON   0x000f51       data     extern libdev18f46k22_a-pic18f46k22.asm
               _T4CONbits   0x000f51       data     extern libdev18f46k22_a-pic18f46k22.asm
                     _PR4   0x000f52       data     extern libdev18f46k22_a-pic18f46k22.asm
                    _TMR4   0x000f53       data     extern libdev18f46k22_a-pic18f46k22.asm
                 _CCP5CON   0x000f54       data     extern libdev18f46k22_a-pic18f46k22.asm
             _CCP5CONbits   0x000f54       data     extern libdev18f46k22_a-pic18f46k22.asm
                   _CCPR5   0x000f55       data     extern libdev18f46k22_a-pic18f46k22.asm
                  _CCPR5L   0x000f55       data     extern libdev18f46k22_a-pic18f46k22.asm
                  _CCPR5H   0x000f56       data     extern libdev18f46k22_a-pic18f46k22.asm
                 _CCP4CON   0x000f57       data     extern libdev18f46k22_a-pic18f46k22.asm
             _CCP4CONbits   0x000f57       data     extern libdev18f46k22_a-pic18f46k22.asm
               _00110_DS_   0x000f58    program     static fsdiv.asm
                   _CCPR4   0x000f58       data     extern libdev18f46k22_a-pic18f46k22.asm
                  _CCPR4L   0x000f58       data     extern libdev18f46k22_a-pic18f46k22.asm
                  _CCPR4H   0x000f59       data     extern libdev18f46k22_a-pic18f46k22.asm
                _PSTR3CON   0x000f5a       data     extern libdev18f46k22_a-pic18f46k22.asm
            _PSTR3CONbits   0x000f5a       data     extern libdev18f46k22_a-pic18f46k22.asm
                  _CCP3AS   0x000f5b       data     extern libdev18f46k22_a-pic18f46k22.asm
              _CCP3ASbits   0x000f5b       data     extern libdev18f46k22_a-pic18f46k22.asm
                 _ECCP3AS   0x000f5b       data     extern libdev18f46k22_a-pic18f46k22.asm
             _ECCP3ASbits   0x000f5b       data     extern libdev18f46k22_a-pic18f46k22.asm
                 _PWM3CON   0x000f5c       data     extern libdev18f46k22_a-pic18f46k22.asm
             _PWM3CONbits   0x000f5c       data     extern libdev18f46k22_a-pic18f46k22.asm
                 _CCP3CON   0x000f5d       data     extern libdev18f46k22_a-pic18f46k22.asm
             _CCP3CONbits   0x000f5d       data     extern libdev18f46k22_a-pic18f46k22.asm
                   _CCPR3   0x000f5e       data     extern libdev18f46k22_a-pic18f46k22.asm
                  _CCPR3L   0x000f5e       data     extern libdev18f46k22_a-pic18f46k22.asm
                  _CCPR3H   0x000f5f       data     extern libdev18f46k22_a-pic18f46k22.asm
                  _SLRCON   0x000f60       data     extern libdev18f46k22_a-pic18f46k22.asm
              _SLRCONbits   0x000f60       data     extern libdev18f46k22_a-pic18f46k22.asm
                    _WPUB   0x000f61       data     extern libdev18f46k22_a-pic18f46k22.asm
                _WPUBbits   0x000f61       data     extern libdev18f46k22_a-pic18f46k22.asm
                    _IOCB   0x000f62       data     extern libdev18f46k22_a-pic18f46k22.asm
                _IOCBbits   0x000f62       data     extern libdev18f46k22_a-pic18f46k22.asm
                _PSTR2CON   0x000f63       data     extern libdev18f46k22_a-pic18f46k22.asm
            _PSTR2CONbits   0x000f63       data     extern libdev18f46k22_a-pic18f46k22.asm
                  _CCP2AS   0x000f64       data     extern libdev18f46k22_a-pic18f46k22.asm
              _CCP2ASbits   0x000f64       data     extern libdev18f46k22_a-pic18f46k22.asm
                 _ECCP2AS   0x000f64       data     extern libdev18f46k22_a-pic18f46k22.asm
             _ECCP2ASbits   0x000f64       data     extern libdev18f46k22_a-pic18f46k22.asm
                 _PWM2CON   0x000f65       data     extern libdev18f46k22_a-pic18f46k22.asm
             _PWM2CONbits   0x000f65       data     extern libdev18f46k22_a-pic18f46k22.asm
                 _CCP2CON   0x000f66       data     extern libdev18f46k22_a-pic18f46k22.asm
             _CCP2CONbits   0x000f66       data     extern libdev18f46k22_a-pic18f46k22.asm
                   _CCPR2   0x000f67       data     extern libdev18f46k22_a-pic18f46k22.asm
                  _CCPR2L   0x000f67       data     extern libdev18f46k22_a-pic18f46k22.asm
                  _CCPR2H   0x000f68       data     extern libdev18f46k22_a-pic18f46k22.asm
                _SSP2CON3   0x000f69       data     extern libdev18f46k22_a-pic18f46k22.asm
            _SSP2CON3bits   0x000f69       data     extern libdev18f46k22_a-pic18f46k22.asm
               _00113_DS_   0x000f6a    program     static fsdiv.asm
                 _SSP2MSK   0x000f6a       data     extern libdev18f46k22_a-pic18f46k22.asm
             _SSP2MSKbits   0x000f6a       data     extern libdev18f46k22_a-pic18f46k22.asm
                _SSP2CON2   0x000f6b       data     extern libdev18f46k22_a-pic18f46k22.asm
            _SSP2CON2bits   0x000f6b       data     extern libdev18f46k22_a-pic18f46k22.asm
                _SSP2CON1   0x000f6c       data     extern libdev18f46k22_a-pic18f46k22.asm
            _SSP2CON1bits   0x000f6c       data     extern libdev18f46k22_a-pic18f46k22.asm
                _SSP2STAT   0x000f6d       data     extern libdev18f46k22_a-pic18f46k22.asm
            _SSP2STATbits   0x000f6d       data     extern libdev18f46k22_a-pic18f46k22.asm
                 _SSP2ADD   0x000f6e       data     extern libdev18f46k22_a-pic18f46k22.asm
                 _SSP2BUF   0x000f6f       data     extern libdev18f46k22_a-pic18f46k22.asm
                _BAUD2CON   0x000f70       data     extern libdev18f46k22_a-pic18f46k22.asm
            _BAUD2CONbits   0x000f70       data     extern libdev18f46k22_a-pic18f46k22.asm
                _BAUDCON2   0x000f70       data     extern libdev18f46k22_a-pic18f46k22.asm
            _BAUDCON2bits   0x000f70       data     extern libdev18f46k22_a-pic18f46k22.asm
                  _RC2STA   0x000f71       data     extern libdev18f46k22_a-pic18f46k22.asm
              _RC2STAbits   0x000f71       data     extern libdev18f46k22_a-pic18f46k22.asm
                  _RCSTA2   0x000f71       data     extern libdev18f46k22_a-pic18f46k22.asm
              _RCSTA2bits   0x000f71       data     extern libdev18f46k22_a-pic18f46k22.asm
                  _TX2STA   0x000f72       data     extern libdev18f46k22_a-pic18f46k22.asm
              _TX2STAbits   0x000f72       data     extern libdev18f46k22_a-pic18f46k22.asm
                  _TXSTA2   0x000f72       data     extern libdev18f46k22_a-pic18f46k22.asm
              _TXSTA2bits   0x000f72       data     extern libdev18f46k22_a-pic18f46k22.asm
                  _TX2REG   0x000f73       data     extern libdev18f46k22_a-pic18f46k22.asm
                  _TXREG2   0x000f73       data     extern libdev18f46k22_a-pic18f46k22.asm
                  _RC2REG   0x000f74       data     extern libdev18f46k22_a-pic18f46k22.asm
                  _RCREG2   0x000f74       data     extern libdev18f46k22_a-pic18f46k22.asm
                  _SP2BRG   0x000f75       data     extern libdev18f46k22_a-pic18f46k22.asm
                  _SPBRG2   0x000f75       data     extern libdev18f46k22_a-pic18f46k22.asm
                 _SP2BRGH   0x000f76       data     extern libdev18f46k22_a-pic18f46k22.asm
                 _SPBRGH2   0x000f76       data     extern libdev18f46k22_a-pic18f46k22.asm
                 _CM12CON   0x000f77       data     extern libdev18f46k22_a-pic18f46k22.asm
             _CM12CONbits   0x000f77       data     extern libdev18f46k22_a-pic18f46k22.asm
                 _CM2CON1   0x000f77       data     extern libdev18f46k22_a-pic18f46k22.asm
             _CM2CON1bits   0x000f77       data     extern libdev18f46k22_a-pic18f46k22.asm
                  _CM2CON   0x000f78       data     extern libdev18f46k22_a-pic18f46k22.asm
                 _CM2CON0   0x000f78       data     extern libdev18f46k22_a-pic18f46k22.asm
             _CM2CON0bits   0x000f78       data     extern libdev18f46k22_a-pic18f46k22.asm
              _CM2CONbits   0x000f78       data     extern libdev18f46k22_a-pic18f46k22.asm
                  _CM1CON   0x000f79       data     extern libdev18f46k22_a-pic18f46k22.asm
                 _CM1CON0   0x000f79       data     extern libdev18f46k22_a-pic18f46k22.asm
             _CM1CON0bits   0x000f79       data     extern libdev18f46k22_a-pic18f46k22.asm
              _CM1CONbits   0x000f79       data     extern libdev18f46k22_a-pic18f46k22.asm
                    _PIE4   0x000f7a       data     extern libdev18f46k22_a-pic18f46k22.asm
                _PIE4bits   0x000f7a       data     extern libdev18f46k22_a-pic18f46k22.asm
                    _PIR4   0x000f7b       data     extern libdev18f46k22_a-pic18f46k22.asm
                _PIR4bits   0x000f7b       data     extern libdev18f46k22_a-pic18f46k22.asm
                    _IPR4   0x000f7c       data     extern libdev18f46k22_a-pic18f46k22.asm
                _IPR4bits   0x000f7c       data     extern libdev18f46k22_a-pic18f46k22.asm
                    _PIE5   0x000f7d       data     extern libdev18f46k22_a-pic18f46k22.asm
                _PIE5bits   0x000f7d       data     extern libdev18f46k22_a-pic18f46k22.asm
                    _PIR5   0x000f7e       data     extern libdev18f46k22_a-pic18f46k22.asm
                _PIR5bits   0x000f7e       data     extern libdev18f46k22_a-pic18f46k22.asm
                    _IPR5   0x000f7f       data     extern libdev18f46k22_a-pic18f46k22.asm
                _IPR5bits   0x000f7f       data     extern libdev18f46k22_a-pic18f46k22.asm
                   _PORTA   0x000f80       data     extern libdev18f46k22_a-pic18f46k22.asm
               _PORTAbits   0x000f80       data     extern libdev18f46k22_a-pic18f46k22.asm
                   _PORTB   0x000f81       data     extern libdev18f46k22_a-pic18f46k22.asm
               _PORTBbits   0x000f81       data     extern libdev18f46k22_a-pic18f46k22.asm
                   _PORTC   0x000f82       data     extern libdev18f46k22_a-pic18f46k22.asm
               _PORTCbits   0x000f82       data     extern libdev18f46k22_a-pic18f46k22.asm
                   _PORTD   0x000f83       data     extern libdev18f46k22_a-pic18f46k22.asm
               _PORTDbits   0x000f83       data     extern libdev18f46k22_a-pic18f46k22.asm
                   _PORTE   0x000f84       data     extern libdev18f46k22_a-pic18f46k22.asm
               _PORTEbits   0x000f84       data     extern libdev18f46k22_a-pic18f46k22.asm
                    _LATA   0x000f89       data     extern libdev18f46k22_a-pic18f46k22.asm
                _LATAbits   0x000f89       data     extern libdev18f46k22_a-pic18f46k22.asm
                    _LATB   0x000f8a       data     extern libdev18f46k22_a-pic18f46k22.asm
                _LATBbits   0x000f8a       data     extern libdev18f46k22_a-pic18f46k22.asm
                    _LATC   0x000f8b       data     extern libdev18f46k22_a-pic18f46k22.asm
                _LATCbits   0x000f8b       data     extern libdev18f46k22_a-pic18f46k22.asm
                    _LATD   0x000f8c       data     extern libdev18f46k22_a-pic18f46k22.asm
                _LATDbits   0x000f8c       data     extern libdev18f46k22_a-pic18f46k22.asm
                    _LATE   0x000f8d       data     extern libdev18f46k22_a-pic18f46k22.asm
                _LATEbits   0x000f8d       data     extern libdev18f46k22_a-pic18f46k22.asm
               _00166_DS_   0x000f92    program     static fsdiv.asm
                    _DDRA   0x000f92       data     extern libdev18f46k22_a-pic18f46k22.asm
                _DDRAbits   0x000f92       data     extern libdev18f46k22_a-pic18f46k22.asm
                   _TRISA   0x000f92       data     extern libdev18f46k22_a-pic18f46k22.asm
               _TRISAbits   0x000f92       data     extern libdev18f46k22_a-pic18f46k22.asm
                    _DDRB   0x000f93       data     extern libdev18f46k22_a-pic18f46k22.asm
                _DDRBbits   0x000f93       data     extern libdev18f46k22_a-pic18f46k22.asm
                   _TRISB   0x000f93       data     extern libdev18f46k22_a-pic18f46k22.asm
               _TRISBbits   0x000f93       data     extern libdev18f46k22_a-pic18f46k22.asm
                    _DDRC   0x000f94       data     extern libdev18f46k22_a-pic18f46k22.asm
                _DDRCbits   0x000f94       data     extern libdev18f46k22_a-pic18f46k22.asm
                   _TRISC   0x000f94       data     extern libdev18f46k22_a-pic18f46k22.asm
               _TRISCbits   0x000f94       data     extern libdev18f46k22_a-pic18f46k22.asm
                    _DDRD   0x000f95       data     extern libdev18f46k22_a-pic18f46k22.asm
                _DDRDbits   0x000f95       data     extern libdev18f46k22_a-pic18f46k22.asm
                   _TRISD   0x000f95       data     extern libdev18f46k22_a-pic18f46k22.asm
               _TRISDbits   0x000f95       data     extern libdev18f46k22_a-pic18f46k22.asm
                    _DDRE   0x000f96       data     extern libdev18f46k22_a-pic18f46k22.asm
                _DDREbits   0x000f96       data     extern libdev18f46k22_a-pic18f46k22.asm
                   _TRISE   0x000f96       data     extern libdev18f46k22_a-pic18f46k22.asm
               _TRISEbits   0x000f96       data     extern libdev18f46k22_a-pic18f46k22.asm
                 _OSCTUNE   0x000f9b       data     extern libdev18f46k22_a-pic18f46k22.asm
             _OSCTUNEbits   0x000f9b       data     extern libdev18f46k22_a-pic18f46k22.asm
                 _HLVDCON   0x000f9c       data     extern libdev18f46k22_a-pic18f46k22.asm
             _HLVDCONbits   0x000f9c       data     extern libdev18f46k22_a-pic18f46k22.asm
                  _LVDCON   0x000f9c       data     extern libdev18f46k22_a-pic18f46k22.asm
              _LVDCONbits   0x000f9c       data     extern libdev18f46k22_a-pic18f46k22.asm
                    _PIE1   0x000f9d       data     extern libdev18f46k22_a-pic18f46k22.asm
                _PIE1bits   0x000f9d       data     extern libdev18f46k22_a-pic18f46k22.asm
                    _PIR1   0x000f9e       data     extern libdev18f46k22_a-pic18f46k22.asm
                _PIR1bits   0x000f9e       data     extern libdev18f46k22_a-pic18f46k22.asm
                    _IPR1   0x000f9f       data     extern libdev18f46k22_a-pic18f46k22.asm
                _IPR1bits   0x000f9f       data     extern libdev18f46k22_a-pic18f46k22.asm
                    _PIE2   0x000fa0       data     extern libdev18f46k22_a-pic18f46k22.asm
                _PIE2bits   0x000fa0       data     extern libdev18f46k22_a-pic18f46k22.asm
                    _PIR2   0x000fa1       data     extern libdev18f46k22_a-pic18f46k22.asm
                _PIR2bits   0x000fa1       data     extern libdev18f46k22_a-pic18f46k22.asm
                    _IPR2   0x000fa2       data     extern libdev18f46k22_a-pic18f46k22.asm
                _IPR2bits   0x000fa2       data     extern libdev18f46k22_a-pic18f46k22.asm
                    _PIE3   0x000fa3       data     extern libdev18f46k22_a-pic18f46k22.asm
                _PIE3bits   0x000fa3       data     extern libdev18f46k22_a-pic18f46k22.asm
                    _PIR3   0x000fa4       data     extern libdev18f46k22_a-pic18f46k22.asm
                _PIR3bits   0x000fa4       data     extern libdev18f46k22_a-pic18f46k22.asm
                    _IPR3   0x000fa5       data     extern libdev18f46k22_a-pic18f46k22.asm
                _IPR3bits   0x000fa5       data     extern libdev18f46k22_a-pic18f46k22.asm
                  _EECON1   0x000fa6       data     extern libdev18f46k22_a-pic18f46k22.asm
              _EECON1bits   0x000fa6       data     extern libdev18f46k22_a-pic18f46k22.asm
                  _EECON2   0x000fa7       data     extern libdev18f46k22_a-pic18f46k22.asm
                  _EEDATA   0x000fa8       data     extern libdev18f46k22_a-pic18f46k22.asm
                   _EEADR   0x000fa9       data     extern libdev18f46k22_a-pic18f46k22.asm
               _EEADRbits   0x000fa9       data     extern libdev18f46k22_a-pic18f46k22.asm
                  _EEADRH   0x000faa       data     extern libdev18f46k22_a-pic18f46k22.asm
              _EEADRHbits   0x000faa       data     extern libdev18f46k22_a-pic18f46k22.asm
                  _RC1STA   0x000fab       data     extern libdev18f46k22_a-pic18f46k22.asm
              _RC1STAbits   0x000fab       data     extern libdev18f46k22_a-pic18f46k22.asm
                   _RCSTA   0x000fab       data     extern libdev18f46k22_a-pic18f46k22.asm
                  _RCSTA1   0x000fab       data     extern libdev18f46k22_a-pic18f46k22.asm
              _RCSTA1bits   0x000fab       data     extern libdev18f46k22_a-pic18f46k22.asm
               _RCSTAbits   0x000fab       data     extern libdev18f46k22_a-pic18f46k22.asm
                  _TX1STA   0x000fac       data     extern libdev18f46k22_a-pic18f46k22.asm
              _TX1STAbits   0x000fac       data     extern libdev18f46k22_a-pic18f46k22.asm
                   _TXSTA   0x000fac       data     extern libdev18f46k22_a-pic18f46k22.asm
                  _TXSTA1   0x000fac       data     extern libdev18f46k22_a-pic18f46k22.asm
              _TXSTA1bits   0x000fac       data     extern libdev18f46k22_a-pic18f46k22.asm
               _TXSTAbits   0x000fac       data     extern libdev18f46k22_a-pic18f46k22.asm
                  _TX1REG   0x000fad       data     extern libdev18f46k22_a-pic18f46k22.asm
                   _TXREG   0x000fad       data     extern libdev18f46k22_a-pic18f46k22.asm
                  _TXREG1   0x000fad       data     extern libdev18f46k22_a-pic18f46k22.asm
                  _RC1REG   0x000fae       data     extern libdev18f46k22_a-pic18f46k22.asm
                   _RCREG   0x000fae       data     extern libdev18f46k22_a-pic18f46k22.asm
                  _RCREG1   0x000fae       data     extern libdev18f46k22_a-pic18f46k22.asm
                  _SP1BRG   0x000faf       data     extern libdev18f46k22_a-pic18f46k22.asm
                   _SPBRG   0x000faf       data     extern libdev18f46k22_a-pic18f46k22.asm
                  _SPBRG1   0x000faf       data     extern libdev18f46k22_a-pic18f46k22.asm
                 _SP1BRGH   0x000fb0       data     extern libdev18f46k22_a-pic18f46k22.asm
                  _SPBRGH   0x000fb0       data     extern libdev18f46k22_a-pic18f46k22.asm
                 _SPBRGH1   0x000fb0       data     extern libdev18f46k22_a-pic18f46k22.asm
                   _T3CON   0x000fb1       data     extern libdev18f46k22_a-pic18f46k22.asm
               _T3CONbits   0x000fb1       data     extern libdev18f46k22_a-pic18f46k22.asm
                    _TMR3   0x000fb2       data     extern libdev18f46k22_a-pic18f46k22.asm
                   _TMR3L   0x000fb2       data     extern libdev18f46k22_a-pic18f46k22.asm
                   _TMR3H   0x000fb3       data     extern libdev18f46k22_a-pic18f46k22.asm
                  _T3GCON   0x000fb4       data     extern libdev18f46k22_a-pic18f46k22.asm
              _T3GCONbits   0x000fb4       data     extern libdev18f46k22_a-pic18f46k22.asm
                 _ECCP1AS   0x000fb6       data     extern libdev18f46k22_a-pic18f46k22.asm
             _ECCP1ASbits   0x000fb6       data     extern libdev18f46k22_a-pic18f46k22.asm
                  _ECCPAS   0x000fb6       data     extern libdev18f46k22_a-pic18f46k22.asm
              _ECCPASbits   0x000fb6       data     extern libdev18f46k22_a-pic18f46k22.asm
                 _PWM1CON   0x000fb7       data     extern libdev18f46k22_a-pic18f46k22.asm
             _PWM1CONbits   0x000fb7       data     extern libdev18f46k22_a-pic18f46k22.asm
                  _PWMCON   0x000fb7       data     extern libdev18f46k22_a-pic18f46k22.asm
              _PWMCONbits   0x000fb7       data     extern libdev18f46k22_a-pic18f46k22.asm
                _BAUD1CON   0x000fb8       data     extern libdev18f46k22_a-pic18f46k22.asm
            _BAUD1CONbits   0x000fb8       data     extern libdev18f46k22_a-pic18f46k22.asm
                 _BAUDCON   0x000fb8       data     extern libdev18f46k22_a-pic18f46k22.asm
                _BAUDCON1   0x000fb8       data     extern libdev18f46k22_a-pic18f46k22.asm
            _BAUDCON1bits   0x000fb8       data     extern libdev18f46k22_a-pic18f46k22.asm
             _BAUDCONbits   0x000fb8       data     extern libdev18f46k22_a-pic18f46k22.asm
                 _BAUDCTL   0x000fb8       data     extern libdev18f46k22_a-pic18f46k22.asm
             _BAUDCTLbits   0x000fb8       data     extern libdev18f46k22_a-pic18f46k22.asm
                _PSTR1CON   0x000fb9       data     extern libdev18f46k22_a-pic18f46k22.asm
            _PSTR1CONbits   0x000fb9       data     extern libdev18f46k22_a-pic18f46k22.asm
                 _PSTRCON   0x000fb9       data     extern libdev18f46k22_a-pic18f46k22.asm
             _PSTRCONbits   0x000fb9       data     extern libdev18f46k22_a-pic18f46k22.asm
                   _T2CON   0x000fba       data     extern libdev18f46k22_a-pic18f46k22.asm
               _T2CONbits   0x000fba       data     extern libdev18f46k22_a-pic18f46k22.asm
                     _PR2   0x000fbb       data     extern libdev18f46k22_a-pic18f46k22.asm
                    _TMR2   0x000fbc       data     extern libdev18f46k22_a-pic18f46k22.asm
                 _CCP1CON   0x000fbd       data     extern libdev18f46k22_a-pic18f46k22.asm
             _CCP1CONbits   0x000fbd       data     extern libdev18f46k22_a-pic18f46k22.asm
                   _CCPR1   0x000fbe       data     extern libdev18f46k22_a-pic18f46k22.asm
                  _CCPR1L   0x000fbe       data     extern libdev18f46k22_a-pic18f46k22.asm
                  _CCPR1H   0x000fbf       data     extern libdev18f46k22_a-pic18f46k22.asm
                  _ADCON2   0x000fc0       data     extern libdev18f46k22_a-pic18f46k22.asm
              _ADCON2bits   0x000fc0       data     extern libdev18f46k22_a-pic18f46k22.asm
                  _ADCON1   0x000fc1       data     extern libdev18f46k22_a-pic18f46k22.asm
              _ADCON1bits   0x000fc1       data     extern libdev18f46k22_a-pic18f46k22.asm
                  _ADCON0   0x000fc2       data     extern libdev18f46k22_a-pic18f46k22.asm
              _ADCON0bits   0x000fc2       data     extern libdev18f46k22_a-pic18f46k22.asm
                   _ADRES   0x000fc3       data     extern libdev18f46k22_a-pic18f46k22.asm
                  _ADRESL   0x000fc3       data     extern libdev18f46k22_a-pic18f46k22.asm
                  _ADRESH   0x000fc4       data     extern libdev18f46k22_a-pic18f46k22.asm
                _SSP1CON2   0x000fc5       data     extern libdev18f46k22_a-pic18f46k22.asm
            _SSP1CON2bits   0x000fc5       data     extern libdev18f46k22_a-pic18f46k22.asm
                 _SSPCON2   0x000fc5       data     extern libdev18f46k22_a-pic18f46k22.asm
             _SSPCON2bits   0x000fc5       data     extern libdev18f46k22_a-pic18f46k22.asm
                _SSP1CON1   0x000fc6       data     extern libdev18f46k22_a-pic18f46k22.asm
            _SSP1CON1bits   0x000fc6       data     extern libdev18f46k22_a-pic18f46k22.asm
                 _SSPCON1   0x000fc6       data     extern libdev18f46k22_a-pic18f46k22.asm
             _SSPCON1bits   0x000fc6       data     extern libdev18f46k22_a-pic18f46k22.asm
                _SSP1STAT   0x000fc7       data     extern libdev18f46k22_a-pic18f46k22.asm
            _SSP1STATbits   0x000fc7       data     extern libdev18f46k22_a-pic18f46k22.asm
                 _SSPSTAT   0x000fc7       data     extern libdev18f46k22_a-pic18f46k22.asm
             _SSPSTATbits   0x000fc7       data     extern libdev18f46k22_a-pic18f46k22.asm
                 _SSP1ADD   0x000fc8       data     extern libdev18f46k22_a-pic18f46k22.asm
                  _SSPADD   0x000fc8       data     extern libdev18f46k22_a-pic18f46k22.asm
                 _SSP1BUF   0x000fc9       data     extern libdev18f46k22_a-pic18f46k22.asm
                  _SSPBUF   0x000fc9       data     extern libdev18f46k22_a-pic18f46k22.asm
                 _SSP1MSK   0x000fca       data     extern libdev18f46k22_a-pic18f46k22.asm
             _SSP1MSKbits   0x000fca       data     extern libdev18f46k22_a-pic18f46k22.asm
                  _SSPMSK   0x000fca       data     extern libdev18f46k22_a-pic18f46k22.asm
              _SSPMSKbits   0x000fca       data     extern libdev18f46k22_a-pic18f46k22.asm
                _SSP1CON3   0x000fcb       data     extern libdev18f46k22_a-pic18f46k22.asm
            _SSP1CON3bits   0x000fcb       data     extern libdev18f46k22_a-pic18f46k22.asm
                 _SSPCON3   0x000fcb       data     extern libdev18f46k22_a-pic18f46k22.asm
             _SSPCON3bits   0x000fcb       data     extern libdev18f46k22_a-pic18f46k22.asm
               _00112_DS_   0x000fcc    program     static fsdiv.asm
                  _T1GCON   0x000fcc       data     extern libdev18f46k22_a-pic18f46k22.asm
              _T1GCONbits   0x000fcc       data     extern libdev18f46k22_a-pic18f46k22.asm
                   _T1CON   0x000fcd       data     extern libdev18f46k22_a-pic18f46k22.asm
               _T1CONbits   0x000fcd       data     extern libdev18f46k22_a-pic18f46k22.asm
                    _TMR1   0x000fce       data     extern libdev18f46k22_a-pic18f46k22.asm
                   _TMR1L   0x000fce       data     extern libdev18f46k22_a-pic18f46k22.asm
                   _TMR1H   0x000fcf       data     extern libdev18f46k22_a-pic18f46k22.asm
                    _RCON   0x000fd0       data     extern libdev18f46k22_a-pic18f46k22.asm
                _RCONbits   0x000fd0       data     extern libdev18f46k22_a-pic18f46k22.asm
                  _WDTCON   0x000fd1       data     extern libdev18f46k22_a-pic18f46k22.asm
              _WDTCONbits   0x000fd1       data     extern libdev18f46k22_a-pic18f46k22.asm
                 _OSCCON2   0x000fd2       data     extern libdev18f46k22_a-pic18f46k22.asm
             _OSCCON2bits   0x000fd2       data     extern libdev18f46k22_a-pic18f46k22.asm
                  _OSCCON   0x000fd3       data     extern libdev18f46k22_a-pic18f46k22.asm
              _OSCCONbits   0x000fd3       data     extern libdev18f46k22_a-pic18f46k22.asm
                   _T0CON   0x000fd5       data     extern libdev18f46k22_a-pic18f46k22.asm
               _T0CONbits   0x000fd5       data     extern libdev18f46k22_a-pic18f46k22.asm
                    _TMR0   0x000fd6       data     extern libdev18f46k22_a-pic18f46k22.asm
                   _TMR0L   0x000fd6       data     extern libdev18f46k22_a-pic18f46k22.asm
                   _TMR0H   0x000fd7       data     extern libdev18f46k22_a-pic18f46k22.asm
                  _STATUS   0x000fd8       data     extern libdev18f46k22_a-pic18f46k22.asm
              _STATUSbits   0x000fd8       data     extern libdev18f46k22_a-pic18f46k22.asm
                   _FSR2L   0x000fd9       data     extern libdev18f46k22_a-pic18f46k22.asm
                   _FSR2H   0x000fda       data     extern libdev18f46k22_a-pic18f46k22.asm
                  _PLUSW2   0x000fdb       data     extern libdev18f46k22_a-pic18f46k22.asm
                 _PREINC2   0x000fdc       data     extern libdev18f46k22_a-pic18f46k22.asm
                _POSTDEC2   0x000fdd       data     extern libdev18f46k22_a-pic18f46k22.asm
                _POSTINC2   0x000fde       data     extern libdev18f46k22_a-pic18f46k22.asm
                   _INDF2   0x000fdf       data     extern libdev18f46k22_a-pic18f46k22.asm
                     _BSR   0x000fe0       data     extern libdev18f46k22_a-pic18f46k22.asm
                   _FSR1L   0x000fe1       data     extern libdev18f46k22_a-pic18f46k22.asm
               _00115_DS_   0x000fe2    program     static fsdiv.asm
                   _FSR1H   0x000fe2       data     extern libdev18f46k22_a-pic18f46k22.asm
                  _PLUSW1   0x000fe3       data     extern libdev18f46k22_a-pic18f46k22.asm
                 _PREINC1   0x000fe4       data     extern libdev18f46k22_a-pic18f46k22.asm
                _POSTDEC1   0x000fe5       data     extern libdev18f46k22_a-pic18f46k22.asm
                _POSTINC1   0x000fe6       data     extern libdev18f46k22_a-pic18f46k22.asm
                   _INDF1   0x000fe7       data     extern libdev18f46k22_a-pic18f46k22.asm
                    _WREG   0x000fe8       data     extern libdev18f46k22_a-pic18f46k22.asm
                   _FSR0L   0x000fe9       data     extern libdev18f46k22_a-pic18f46k22.asm
                   _FSR0H   0x000fea       data     extern libdev18f46k22_a-pic18f46k22.asm
                  _PLUSW0   0x000feb       data     extern libdev18f46k22_a-pic18f46k22.asm
                 _PREINC0   0x000fec       data     extern libdev18f46k22_a-pic18f46k22.asm
                _POSTDEC0   0x000fed       data     extern libdev18f46k22_a-pic18f46k22.asm
               _00168_DS_   0x000fee    program     static fsdiv.asm
                _POSTINC0   0x000fee       data     extern libdev18f46k22_a-pic18f46k22.asm
                   _INDF0   0x000fef       data     extern libdev18f46k22_a-pic18f46k22.asm
                 _INTCON3   0x000ff0       data     extern libdev18f46k22_a-pic18f46k22.asm
             _INTCON3bits   0x000ff0       data     extern libdev18f46k22_a-pic18f46k22.asm
                 _INTCON2   0x000ff1       data     extern libdev18f46k22_a-pic18f46k22.asm
             _INTCON2bits   0x000ff1       data     extern libdev18f46k22_a-pic18f46k22.asm
                  _INTCON   0x000ff2       data     extern libdev18f46k22_a-pic18f46k22.asm
              _INTCONbits   0x000ff2       data     extern libdev18f46k22_a-pic18f46k22.asm
                    _PROD   0x000ff3       data     extern libdev18f46k22_a-pic18f46k22.asm
                   _PRODL   0x000ff3       data     extern libdev18f46k22_a-pic18f46k22.asm
                   _PRODH   0x000ff4       data     extern libdev18f46k22_a-pic18f46k22.asm
                  _TABLAT   0x000ff5       data     extern libdev18f46k22_a-pic18f46k22.asm
                  _TBLPTR   0x000ff6       data     extern libdev18f46k22_a-pic18f46k22.asm
                 _TBLPTRL   0x000ff6       data     extern libdev18f46k22_a-pic18f46k22.asm
                 _TBLPTRH   0x000ff7       data     extern libdev18f46k22_a-pic18f46k22.asm
                 _TBLPTRU   0x000ff8       data     extern libdev18f46k22_a-pic18f46k22.asm
                      _PC   0x000ff9       data     extern libdev18f46k22_a-pic18f46k22.asm
                     _PCL   0x000ff9       data     extern libdev18f46k22_a-pic18f46k22.asm
                  _PCLATH   0x000ffa       data     extern libdev18f46k22_a-pic18f46k22.asm
                  _PCLATU   0x000ffb       data     extern libdev18f46k22_a-pic18f46k22.asm
                  _STKPTR   0x000ffc       data     extern libdev18f46k22_a-pic18f46k22.asm
              _STKPTRbits   0x000ffc       data     extern libdev18f46k22_a-pic18f46k22.asm
                     _TOS   0x000ffd       data     extern libdev18f46k22_a-pic18f46k22.asm
                    _TOSL   0x000ffd       data     extern libdev18f46k22_a-pic18f46k22.asm
                    _TOSH   0x000ffe       data     extern libdev18f46k22_a-pic18f46k22.asm
                    _TOSU   0x000fff       data     extern libdev18f46k22_a-pic18f46k22.asm
               _00170_DS_   0x00100a    program     static fsdiv.asm
               _00124_DS_   0x00101c    program     static fsdiv.asm
               _00125_DS_   0x001024    program     static fsdiv.asm
               _00120_DS_   0x00103e    program     static fsdiv.asm
               _00117_DS_   0x001052    program     static fsdiv.asm
               _00126_DS_   0x001062    program     static fsdiv.asm
               _00127_DS_   0x00106a    program     static fsdiv.asm
               _00121_DS_   0x0010a8    program     static fsdiv.asm
               _00122_DS_   0x0010b8    program     static fsdiv.asm
                __mullong   0x00111a    program     extern mullong.asm
             _prep_pwm_lu   0x00132e    program     extern build/default/production/stepperCon.asm
               _00269_DS_   0x0013fe    program     static build/default/production/stepperCon.asm
              ___ulong2fs   0x001522    program     extern ulong2fs.asm
               _00121_DS_   0x001586    program     static ulong2fs.asm
               _00107_DS_   0x00158c    program     static ulong2fs.asm
               _00124_DS_   0x0015a0    program     static ulong2fs.asm
               _00141_DS_   0x0015be    program     static ulong2fs.asm
               _00110_DS_   0x0015c0    program     static ulong2fs.asm
               _00142_DS_   0x0015e6    program     static ulong2fs.asm
               _00114_DS_   0x0015f0    program     static ulong2fs.asm
               _00144_DS_   0x001616    program     static ulong2fs.asm
               _00145_DS_   0x001618    program     static ulong2fs.asm
               _00116_DS_   0x001624    program     static ulong2fs.asm
               _00117_DS_   0x001662    program     static ulong2fs.asm
                 _highInt   0x001698    program     static build/default/production/stepperCon.asm
               _00106_DS_   0x0016ce    program     static build/default/production/stepperCon.asm
               _00108_DS_   0x0016e0    program     static build/default/production/stepperCon.asm
               _00109_DS_   0x0016e8    program     static build/default/production/stepperCon.asm
               _00111_DS_   0x0016f0    program     static build/default/production/stepperCon.asm
               _00192_DS_   0x001702    program     static build/default/production/stepperCon.asm
               _00194_DS_   0x00170a    program     static build/default/production/stepperCon.asm
               _00113_DS_   0x001716    program     static build/default/production/stepperCon.asm
               _00116_DS_   0x00171c    program     static build/default/production/stepperCon.asm
               _00117_DS_   0x00171e    program     static build/default/production/stepperCon.asm
               _00119_DS_   0x00172c    program     static build/default/production/stepperCon.asm
               _00120_DS_   0x001730    program     static build/default/production/stepperCon.asm
               _00124_DS_   0x001738    program     static build/default/production/stepperCon.asm
               _00125_DS_   0x00174a    program     static build/default/production/stepperCon.asm
               _00127_DS_   0x00174c    program     static build/default/production/stepperCon.asm
               _00196_DS_   0x00175e    program     static build/default/production/stepperCon.asm
               _00198_DS_   0x001766    program     static build/default/production/stepperCon.asm
               _00129_DS_   0x001772    program     static build/default/production/stepperCon.asm
               _00132_DS_   0x001778    program     static build/default/production/stepperCon.asm
               _00133_DS_   0x00177a    program     static build/default/production/stepperCon.asm
               _00135_DS_   0x001788    program     static build/default/production/stepperCon.asm
               _00136_DS_   0x00178c    program     static build/default/production/stepperCon.asm
               _00140_DS_   0x001794    program     static build/default/production/stepperCon.asm
               _00141_DS_   0x0017a6    program     static build/default/production/stepperCon.asm
               _00144_DS_   0x0017a8    program     static build/default/production/stepperCon.asm
                  _lowInt   0x0017d0    program     static build/default/production/stepperCon.asm
               _00204_DS_   0x001812    program     static build/default/production/stepperCon.asm
               _00214_DS_   0x00183e    program     static build/default/production/stepperCon.asm
               _00211_DS_   0x001866    program     static build/default/production/stepperCon.asm
               _00208_DS_   0x001874    program     static build/default/production/stepperCon.asm
               _00215_DS_   0x001898    program     static build/default/production/stepperCon.asm
               _00219_DS_   0x0018b2    program     static build/default/production/stepperCon.asm
               _00221_DS_   0x0018b8    program     static build/default/production/stepperCon.asm
              ___slong2fs   0x0018ec    program     extern slong2fs.asm
               _00113_DS_   0x001950    program     static slong2fs.asm
               _00106_DS_   0x001988    program     static slong2fs.asm
               _00108_DS_   0x0019bc    program     static slong2fs.asm
              ___fs2ulong   0x0019e2    program     extern fs2ulong.asm
               _00105_DS_   0x001a42    program     static fs2ulong.asm
               _00106_DS_   0x001a4c    program     static fs2ulong.asm
               _00118_DS_   0x001a8c    program     static fs2ulong.asm
               _00120_DS_   0x001a9a    program     static fs2ulong.asm
               _00119_DS_   0x001a9c    program     static fs2ulong.asm
               _00117_DS_   0x001aa8    program     static fs2ulong.asm
               _00108_DS_   0x001ab6    program     static fs2ulong.asm
              _store_regs   0x001ad4    program     extern build/default/production/_ext/899019879/registers.asm
               _00127_DS_   0x001b1c    program     static build/default/production/_ext/899019879/registers.asm
               _00128_DS_   0x001b72    program     static build/default/production/_ext/899019879/registers.asm
               _00129_DS_   0x001b76    program     static build/default/production/_ext/899019879/registers.asm
                __startup   0x001ba0    program     extern crt0iz.asm
               clear_loop   0x001bb6    program     static crt0iz.asm
               entry_loop   0x001bd6    program     static crt0iz.asm
                copy_loop   0x001c24    program     static crt0iz.asm
            copy_loop_dec   0x001c2a    program     static crt0iz.asm
           entry_loop_dec   0x001c3e    program     static crt0iz.asm
                   lockup   0x001c4a    program     static crt0iz.asm
             _set_op_vars   0x001c4c    program     extern build/default/production/stepperCon.asm
              _resetCheck   0x001cf0    program     extern build/default/production/_ext/899019879/sc_setup.asm
               _00133_DS_   0x001d0c    program     static build/default/production/_ext/899019879/sc_setup.asm
               _00131_DS_   0x001d18    program     static build/default/production/_ext/899019879/sc_setup.asm
               _00134_DS_   0x001d1a    program     static build/default/production/_ext/899019879/sc_setup.asm
               _00145_DS_   0x001d22    program     static build/default/production/_ext/899019879/sc_setup.asm
               _00143_DS_   0x001d34    program     static build/default/production/_ext/899019879/sc_setup.asm
               _00137_DS_   0x001d4a    program     static build/default/production/_ext/899019879/sc_setup.asm
               _00148_DS_   0x001d84    program     static build/default/production/_ext/899019879/sc_setup.asm
               _read_regs   0x001d92    program     extern build/default/production/_ext/899019879/registers.asm
               _00107_DS_   0x001dd6    program     static build/default/production/_ext/899019879/registers.asm
               _00109_DS_   0x001e0e    program     static build/default/production/_ext/899019879/registers.asm
               ___fs2uint   0x001e34    program     extern fs2uint.asm
               _00112_DS_   0x001ea0    program     static fs2uint.asm
               _00106_DS_   0x001ea8    program     static fs2uint.asm
               _00107_DS_   0x001eae    program     static fs2uint.asm
               ___sint2fs   0x001f46    program     extern sint2fs.asm
               __moduchar   0x001fba    program     extern moduchar.asm
               _00107_DS_   0x001fe2    program     static moduchar.asm
               _00106_DS_   0x001ff6    program     static moduchar.asm
               _00112_DS_   0x001ffe    program     static moduchar.asm
               _00111_DS_   0x002008    program     static moduchar.asm
                _delay_ms   0x00202e    program     extern build/default/production/stepperCon.asm
               _00290_DS_   0x002056    program     static build/default/production/stepperCon.asm
               _00287_DS_   0x00207e    program     static build/default/production/stepperCon.asm
               _00292_DS_   0x002084    program     static build/default/production/stepperCon.asm
               ___uint2fs   0x00209e    program     extern uint2fs.asm
           _phTimersSetup   0x002108    program     extern build/default/production/_ext/899019879/sc_setup.asm
                 _ioSetup   0x002164    program     extern build/default/production/_ext/899019879/sc_setup.asm
                _pwmSetup   0x0021b0    program     extern build/default/production/_ext/899019879/sc_setup.asm
              _activeInts   0x0021f6    program     extern build/default/production/stepperCon.asm
               _00256_DS_   0x002212    program     static build/default/production/stepperCon.asm
               _00257_DS_   0x00221a    program     static build/default/production/stepperCon.asm
              _compsSetup   0x00222c    program     extern build/default/production/_ext/899019879/sc_setup.asm
                _i2cSetup   0x00225e    program     extern build/default/production/stepperCon.asm
                _intSetup   0x002286    program     extern build/default/production/_ext/899019879/sc_setup.asm
                _idleInts   0x0022ae    program     extern build/default/production/stepperCon.asm
     ___eeprom16_gptrput1   0x0022d4    program     extern eeprom16_gptrput1.asm
               __gptrget1   0x0022f8    program     extern gptrget1.asm
                 _lab_01_   0x002304    program     static gptrget1.asm
     ___eeprom16_gptrget1   0x00231a    program     extern eeprom16_gptrget1.asm
               __gptrput1   0x002336    program     extern gptrput1.asm
                 _lab_01_   0x002344    program     static gptrput1.asm
        ___eeprom16_write   0x00234c    program     extern eeprom16_write.asm
           wait_till_done   0x002356    program     static eeprom16_write.asm
                   _cinit   0x00235e    program     extern 
                ___EEPROM   0xf00000    program     extern build/default/production/stepperCon.asm


